ARM GAS  /var/folders/l4/6w9kflz11csb_6qsyz46nv3c0000gp/T//cck4x9NQ.s 			page 1


   1              		.cpu cortex-m0
   2              		.arch armv6s-m
   3              		.fpu softvfp
   4              		.eabi_attribute 20, 1
   5              		.eabi_attribute 21, 1
   6              		.eabi_attribute 23, 3
   7              		.eabi_attribute 24, 1
   8              		.eabi_attribute 25, 1
   9              		.eabi_attribute 26, 1
  10              		.eabi_attribute 30, 1
  11              		.eabi_attribute 34, 0
  12              		.eabi_attribute 18, 4
  13              		.file	"main.c"
  14              		.text
  15              	.Ltext0:
  16              		.cfi_sections	.debug_frame
  17              		.file 1 "Core/Src/main.c"
  18              		.section	.text.MX_GPIO_Init,"ax",%progbits
  19              		.align	1
  20              		.syntax unified
  21              		.code	16
  22              		.thumb_func
  24              	MX_GPIO_Init:
  25              	.LFB47:
   1:Core/Src/main.c **** /* USER CODE BEGIN Header */
   2:Core/Src/main.c **** /**
   3:Core/Src/main.c ****   ******************************************************************************
   4:Core/Src/main.c ****   * @file           : main.c
   5:Core/Src/main.c ****   * @brief          : Main program body
   6:Core/Src/main.c ****   ******************************************************************************
   7:Core/Src/main.c ****   * @attention
   8:Core/Src/main.c ****   *
   9:Core/Src/main.c ****   * Copyright (c) 2026 STMicroelectronics.
  10:Core/Src/main.c ****   * All rights reserved.
  11:Core/Src/main.c ****   *
  12:Core/Src/main.c ****   * This software is licensed under terms that can be found in the LICENSE file
  13:Core/Src/main.c ****   * in the root directory of this software component.
  14:Core/Src/main.c ****   * If no LICENSE file comes with this software, it is provided AS-IS.
  15:Core/Src/main.c ****   *
  16:Core/Src/main.c ****   ******************************************************************************
  17:Core/Src/main.c ****   */
  18:Core/Src/main.c **** /* USER CODE END Header */
  19:Core/Src/main.c **** /* Includes ------------------------------------------------------------------*/
  20:Core/Src/main.c **** #include "main.h"
  21:Core/Src/main.c **** #include <stdio.h>
  22:Core/Src/main.c **** /* Private includes ----------------------------------------------------------*/
  23:Core/Src/main.c **** /* USER CODE BEGIN Includes */
  24:Core/Src/main.c **** 
  25:Core/Src/main.c **** /* USER CODE END Includes */
  26:Core/Src/main.c **** 
  27:Core/Src/main.c **** /* Private typedef -----------------------------------------------------------*/
  28:Core/Src/main.c **** /* USER CODE BEGIN PTD */
  29:Core/Src/main.c **** 
  30:Core/Src/main.c **** /* USER CODE END PTD */
  31:Core/Src/main.c **** 
  32:Core/Src/main.c **** /* Private define ------------------------------------------------------------*/
  33:Core/Src/main.c **** /* USER CODE BEGIN PD */
ARM GAS  /var/folders/l4/6w9kflz11csb_6qsyz46nv3c0000gp/T//cck4x9NQ.s 			page 2


  34:Core/Src/main.c **** #define ADV7513_ADDR  0x72
  35:Core/Src/main.c **** 
  36:Core/Src/main.c **** //Fixed Registers That Must Be Set
  37:Core/Src/main.c **** 
  38:Core/Src/main.c **** 
  39:Core/Src/main.c **** #define PLL_0_ADDR 0x98
  40:Core/Src/main.c **** #define PLL_0_VAL  0x03
  41:Core/Src/main.c **** 
  42:Core/Src/main.c **** #define PLL_1_ADDR 0x9A
  43:Core/Src/main.c **** #define PLL_1_VAL  0xE0
  44:Core/Src/main.c **** 
  45:Core/Src/main.c **** #define PLL_2_ADDR 0x9C
  46:Core/Src/main.c **** #define PLL_2_VAL  0x30
  47:Core/Src/main.c **** 
  48:Core/Src/main.c **** #define PLL_3_ADDR 0x9D
  49:Core/Src/main.c **** #define PLL_3_VAL  0x01
  50:Core/Src/main.c **** 
  51:Core/Src/main.c **** #define PLL_4_ADDR 0xA2
  52:Core/Src/main.c **** #define PLL_4_VAL  0xA4
  53:Core/Src/main.c **** 
  54:Core/Src/main.c **** #define PLL_5_ADDR 0xA3
  55:Core/Src/main.c **** #define PLL_5_VAL  0xA4
  56:Core/Src/main.c **** 
  57:Core/Src/main.c **** #define PLL_6_ADDR 0xE0
  58:Core/Src/main.c **** #define PLL_6_VAL  0xD0
  59:Core/Src/main.c **** 
  60:Core/Src/main.c **** #define PLL_7_ADDR 0xF9
  61:Core/Src/main.c **** #define PLL_7_VAL  0x00
  62:Core/Src/main.c **** 
  63:Core/Src/main.c **** // RGB888 -> HDMI INIT 
  64:Core/Src/main.c **** 
  65:Core/Src/main.c **** #define VIDEO_INPUT_ADDR   0x15
  66:Core/Src/main.c **** #define VIDEO_INPUT_VAL    0x00
  67:Core/Src/main.c **** 
  68:Core/Src/main.c **** #define OUTPUT_FORMAT_ADDR 0x16
  69:Core/Src/main.c **** #define OUTPUT_FORMAT_VAL  0x30
  70:Core/Src/main.c **** 
  71:Core/Src/main.c **** #define POLARITY_ADDR      0x17
  72:Core/Src/main.c **** #define POLARITY_VAL       0x00  
  73:Core/Src/main.c **** 
  74:Core/Src/main.c **** #define POWER_UP_ADDR      0x41	
  75:Core/Src/main.c **** #define POWER_UP_VAL       0x10
  76:Core/Src/main.c **** 
  77:Core/Src/main.c **** #define TMDS_OUTPUT_ADDR   0x40	
  78:Core/Src/main.c **** #define TMDS_OUTPUT_ENABLE 0x80
  79:Core/Src/main.c **** 
  80:Core/Src/main.c **** #define MODE_ADDR          0xAF	
  81:Core/Src/main.c **** #define MODE_DVI_ENABLE    0x00   
  82:Core/Src/main.c **** #define MODE_HDMI_ENABLE   0x02  
  83:Core/Src/main.c **** 
  84:Core/Src/main.c **** #define AVI_INFOFRAME_ADDR 0x55
  85:Core/Src/main.c **** #define AVI_INFOFRAME_VAL  0x10   // RGB 4:4:4
  86:Core/Src/main.c **** 
  87:Core/Src/main.c **** #define AVI_ASPECT_ADDR    0x56
  88:Core/Src/main.c **** #define AVI_ASPECT_VAL     0x20   // 16:9
  89:Core/Src/main.c **** #define AUTO_CKSUM_ADDR    0x4A
  90:Core/Src/main.c **** #define AUTO_CKSUM_VAL     0x80   // Auto Checksum Enable
ARM GAS  /var/folders/l4/6w9kflz11csb_6qsyz46nv3c0000gp/T//cck4x9NQ.s 			page 3


  91:Core/Src/main.c **** 
  92:Core/Src/main.c **** 
  93:Core/Src/main.c **** // --- ą×ą┐čĆąĄą┤ąĄą╗ąĄąĮąĖčÅ ą┤ą╗čÅ ADV7513 ---
  94:Core/Src/main.c **** #define ADV7513_MAIN_ADDR        0x72  // ą×čüąĮąŠą▓ąĮąŠą╣ I2C ą░ą┤čĆąĄčü ADV7513
  95:Core/Src/main.c **** #define ADV7513_EDID_MEM_ADDR    0x7E  // ąÉą┤čĆąĄčü ą▓ąĮčāčéčĆąĄąĮąĮąĄą╣ ą┐ą░ą╝čÅčéąĖ EDID (ą┐ąŠ č
  96:Core/Src/main.c **** #define EDID_BLOCK_SIZE          256   // ąĀą░ąĘą╝ąĄčĆ ąŠą┤ąĮąŠą│ąŠ čüąĄą│ą╝ąĄąĮčéą░ ą▓ ą▒ą░ą╣čéą░č
  97:Core/Src/main.c **** 
  98:Core/Src/main.c **** // --- ąĀąĄą│ąĖčüčéčĆčŗ ADV7513 (Main Map) ---
  99:Core/Src/main.c **** #define REG_EDID_SEGMENT         0xC4  // ąĀąĄą│ąĖčüčéčĆ ą▓čŗą▒ąŠčĆą░ čüąĄą│ą╝ąĄąĮčéą░ EDID
 100:Core/Src/main.c **** #define REG_EDID_RDY_FLAG        0x96  // ąĀąĄą│ąĖčüčéčĆ čäą╗ą░ą│ą░ ą│ąŠčéąŠą▓ąĮąŠčüčéąĖ EDID
 101:Core/Src/main.c **** #define REG_EDID_MEM_ADDR        0x43  // ąĀąĄą│ąĖčüčéčĆ ą░ą┤čĆąĄčüą░ ą┐ą░ą╝čÅčéąĖ EDID
 102:Core/Src/main.c **** 
 103:Core/Src/main.c **** /* USER CODE END PD */
 104:Core/Src/main.c **** 
 105:Core/Src/main.c **** /* Private macro -------------------------------------------------------------*/
 106:Core/Src/main.c **** /* USER CODE BEGIN PM */
 107:Core/Src/main.c **** 
 108:Core/Src/main.c **** /* USER CODE END PM */
 109:Core/Src/main.c **** 
 110:Core/Src/main.c **** /* Private variables ---------------------------------------------------------*/
 111:Core/Src/main.c **** I2C_HandleTypeDef hi2c1;
 112:Core/Src/main.c **** 
 113:Core/Src/main.c **** UART_HandleTypeDef huart1;
 114:Core/Src/main.c **** 
 115:Core/Src/main.c **** /* USER CODE BEGIN PV */
 116:Core/Src/main.c **** 
 117:Core/Src/main.c **** /* USER CODE END PV */
 118:Core/Src/main.c **** 
 119:Core/Src/main.c **** /* Private function prototypes -----------------------------------------------*/
 120:Core/Src/main.c **** void SystemClock_Config(void);
 121:Core/Src/main.c **** static void MX_GPIO_Init(void);
 122:Core/Src/main.c **** static void MX_I2C1_Init(void);
 123:Core/Src/main.c **** static void MX_USART1_UART_Init(void);
 124:Core/Src/main.c **** void ADV7513_Full_Diagnostics(void);
 125:Core/Src/main.c **** void ADV7513_Read_Interrupts(void);
 126:Core/Src/main.c **** HAL_StatusTypeDef ADV7513_ReadEDIDSegment(I2C_HandleTypeDef *hi2c_dev, uint8_t segment, uint8_t *ed
 127:Core/Src/main.c **** /* USER CODE BEGIN PFP */
 128:Core/Src/main.c **** 
 129:Core/Src/main.c **** /* USER CODE END PFP */
 130:Core/Src/main.c **** 
 131:Core/Src/main.c **** /* Private user code ---------------------------------------------------------*/
 132:Core/Src/main.c **** /* USER CODE BEGIN 0 */
 133:Core/Src/main.c **** 
 134:Core/Src/main.c **** /* USER CODE END 0 */
 135:Core/Src/main.c **** 
 136:Core/Src/main.c **** /**
 137:Core/Src/main.c ****   * @brief  The application entry point.
 138:Core/Src/main.c ****   * @retval int
 139:Core/Src/main.c ****   */
 140:Core/Src/main.c **** int main(void)
 141:Core/Src/main.c **** {
 142:Core/Src/main.c **** 
 143:Core/Src/main.c ****   /* USER CODE BEGIN 1 */
 144:Core/Src/main.c **** 
 145:Core/Src/main.c ****   /* USER CODE END 1 */
 146:Core/Src/main.c **** 
 147:Core/Src/main.c ****   /* MCU Configuration--------------------------------------------------------*/
ARM GAS  /var/folders/l4/6w9kflz11csb_6qsyz46nv3c0000gp/T//cck4x9NQ.s 			page 4


 148:Core/Src/main.c **** 
 149:Core/Src/main.c ****   /* Reset of all peripherals, Initializes the Flash interface and the Systick. */
 150:Core/Src/main.c ****   HAL_Init();
 151:Core/Src/main.c **** 
 152:Core/Src/main.c ****   /* USER CODE BEGIN Init */
 153:Core/Src/main.c **** 
 154:Core/Src/main.c ****   /* USER CODE END Init */
 155:Core/Src/main.c **** 
 156:Core/Src/main.c ****   /* Configure the system clock */
 157:Core/Src/main.c ****   SystemClock_Config();
 158:Core/Src/main.c **** 
 159:Core/Src/main.c ****   /* USER CODE BEGIN SysInit */
 160:Core/Src/main.c ****   HAL_Delay(200);
 161:Core/Src/main.c ****   /* USER CODE END SysInit */
 162:Core/Src/main.c **** 
 163:Core/Src/main.c ****   /* Initialize all configured peripherals */
 164:Core/Src/main.c ****   MX_GPIO_Init();
 165:Core/Src/main.c ****   MX_I2C1_Init();
 166:Core/Src/main.c ****   MX_USART1_UART_Init();
 167:Core/Src/main.c ****   /* USER CODE BEGIN 2 */
 168:Core/Src/main.c ****   uint8_t edid_data[EDID_BLOCK_SIZE];
 169:Core/Src/main.c ****   ADV7513_PowerInit();
 170:Core/Src/main.c ****   ADV7513_HDMI_Init();
 171:Core/Src/main.c **** 
 172:Core/Src/main.c ****   // ADV7513_WriteVerifyReg(0xD6, 0x80, "HPD ON");
 173:Core/Src/main.c ****   // ADV7513_WriteVerifyReg(0x41, 0x00, "POWER TX ON");
 174:Core/Src/main.c ****   // uint8_t read_val = 0;
 175:Core/Src/main.c ****   // HAL_StatusTypeDef status = HAL_I2C_Mem_Read(&hi2c1, ADV7513_ADDR, 0x3E, I2C_MEMADD_SIZE_8BIT, 
 176:Core/Src/main.c ****   // // if(read_val== 0){
 177:Core/Src/main.c ****   // //   Error_Handler();
 178:Core/Src/main.c ****   // // }
 179:Core/Src/main.c **** 
 180:Core/Src/main.c ****   // status = HAL_I2C_Mem_Read(&hi2c1, ADV7513_ADDR, 0x17, I2C_MEMADD_SIZE_8BIT, &read_val, 1, HAL_
 181:Core/Src/main.c ****   // if(read_val==0){
 182:Core/Src/main.c ****   //   Error_Handler();
 183:Core/Src/main.c ****   // }
 184:Core/Src/main.c **** 
 185:Core/Src/main.c **** 
 186:Core/Src/main.c ****   ADV7513_ReadEDIDSegment(&hi2c1,0, edid_data, HAL_MAX_DELAY);
 187:Core/Src/main.c **** 
 188:Core/Src/main.c **** 
 189:Core/Src/main.c ****   ADV7513_Full_Diagnostics();
 190:Core/Src/main.c ****   /* USER CODE END 2 */
 191:Core/Src/main.c **** 
 192:Core/Src/main.c ****   /* Infinite loop */
 193:Core/Src/main.c ****     while (1)
 194:Core/Src/main.c ****   {
 195:Core/Src/main.c ****      /* USER CODE BEGIN WHILE */
 196:Core/Src/main.c ****      
 197:Core/Src/main.c ****       // ADV7513_Read_Interrupts();
 198:Core/Src/main.c ****       __WFI();
 199:Core/Src/main.c **** 
 200:Core/Src/main.c **** 
 201:Core/Src/main.c **** 
 202:Core/Src/main.c ****     /* USER CODE END WHILE */
 203:Core/Src/main.c **** 
 204:Core/Src/main.c ****     
ARM GAS  /var/folders/l4/6w9kflz11csb_6qsyz46nv3c0000gp/T//cck4x9NQ.s 			page 5


 205:Core/Src/main.c **** 
 206:Core/Src/main.c **** 
 207:Core/Src/main.c ****   }
 208:Core/Src/main.c **** 
 209:Core/Src/main.c ****   /* USER CODE BEGIN 3 */
 210:Core/Src/main.c **** 
 211:Core/Src/main.c **** 
 212:Core/Src/main.c ****   /* USER CODE END 3 */
 213:Core/Src/main.c **** }
 214:Core/Src/main.c **** 
 215:Core/Src/main.c **** /**
 216:Core/Src/main.c ****   * @brief System Clock Configuration
 217:Core/Src/main.c ****   * @retval None
 218:Core/Src/main.c ****   */
 219:Core/Src/main.c **** void SystemClock_Config(void)
 220:Core/Src/main.c **** {
 221:Core/Src/main.c ****   RCC_OscInitTypeDef RCC_OscInitStruct = {0};
 222:Core/Src/main.c ****   RCC_ClkInitTypeDef RCC_ClkInitStruct = {0};
 223:Core/Src/main.c ****   RCC_PeriphCLKInitTypeDef PeriphClkInit = {0};
 224:Core/Src/main.c **** 
 225:Core/Src/main.c ****   /** Initializes the RCC Oscillators according to the specified parameters
 226:Core/Src/main.c ****   * in the RCC_OscInitTypeDef structure.
 227:Core/Src/main.c ****   */
 228:Core/Src/main.c ****   RCC_OscInitStruct.OscillatorType = RCC_OSCILLATORTYPE_HSI;
 229:Core/Src/main.c ****   RCC_OscInitStruct.HSIState = RCC_HSI_ON;
 230:Core/Src/main.c ****   RCC_OscInitStruct.HSICalibrationValue = RCC_HSICALIBRATION_DEFAULT;
 231:Core/Src/main.c ****   RCC_OscInitStruct.PLL.PLLState = RCC_PLL_NONE;
 232:Core/Src/main.c ****   if (HAL_RCC_OscConfig(&RCC_OscInitStruct) != HAL_OK)
 233:Core/Src/main.c ****   {
 234:Core/Src/main.c ****     Error_Handler();
 235:Core/Src/main.c ****   }
 236:Core/Src/main.c **** 
 237:Core/Src/main.c ****   /** Initializes the CPU, AHB and APB buses clocks
 238:Core/Src/main.c ****   */
 239:Core/Src/main.c ****   RCC_ClkInitStruct.ClockType = RCC_CLOCKTYPE_HCLK|RCC_CLOCKTYPE_SYSCLK
 240:Core/Src/main.c ****                               |RCC_CLOCKTYPE_PCLK1;
 241:Core/Src/main.c ****   RCC_ClkInitStruct.SYSCLKSource = RCC_SYSCLKSOURCE_HSI;
 242:Core/Src/main.c ****   RCC_ClkInitStruct.AHBCLKDivider = RCC_SYSCLK_DIV1;
 243:Core/Src/main.c ****   RCC_ClkInitStruct.APB1CLKDivider = RCC_HCLK_DIV1;
 244:Core/Src/main.c **** 
 245:Core/Src/main.c ****   if (HAL_RCC_ClockConfig(&RCC_ClkInitStruct, FLASH_LATENCY_0) != HAL_OK)
 246:Core/Src/main.c ****   {
 247:Core/Src/main.c ****     Error_Handler();
 248:Core/Src/main.c ****   }
 249:Core/Src/main.c ****   PeriphClkInit.PeriphClockSelection = RCC_PERIPHCLK_USART1|RCC_PERIPHCLK_I2C1;
 250:Core/Src/main.c ****   PeriphClkInit.Usart1ClockSelection = RCC_USART1CLKSOURCE_PCLK1;
 251:Core/Src/main.c ****   PeriphClkInit.I2c1ClockSelection = RCC_I2C1CLKSOURCE_HSI;
 252:Core/Src/main.c ****   if (HAL_RCCEx_PeriphCLKConfig(&PeriphClkInit) != HAL_OK)
 253:Core/Src/main.c ****   {
 254:Core/Src/main.c ****     Error_Handler();
 255:Core/Src/main.c ****   }
 256:Core/Src/main.c **** }
 257:Core/Src/main.c **** 
 258:Core/Src/main.c **** /**
 259:Core/Src/main.c ****   * @brief I2C1 Initialization Function
 260:Core/Src/main.c ****   * @param None
 261:Core/Src/main.c ****   * @retval None
ARM GAS  /var/folders/l4/6w9kflz11csb_6qsyz46nv3c0000gp/T//cck4x9NQ.s 			page 6


 262:Core/Src/main.c ****   */
 263:Core/Src/main.c **** static void MX_I2C1_Init(void)
 264:Core/Src/main.c **** {
 265:Core/Src/main.c **** 
 266:Core/Src/main.c ****   /* USER CODE BEGIN I2C1_Init 0 */
 267:Core/Src/main.c **** 
 268:Core/Src/main.c ****   /* USER CODE END I2C1_Init 0 */
 269:Core/Src/main.c **** 
 270:Core/Src/main.c ****   /* USER CODE BEGIN I2C1_Init 1 */
 271:Core/Src/main.c **** 
 272:Core/Src/main.c ****   /* USER CODE END I2C1_Init 1 */
 273:Core/Src/main.c ****   hi2c1.Instance = I2C1;
 274:Core/Src/main.c ****   hi2c1.Init.Timing = 0x00201D2B;
 275:Core/Src/main.c ****   hi2c1.Init.OwnAddress1 = 0;
 276:Core/Src/main.c ****   hi2c1.Init.AddressingMode = I2C_ADDRESSINGMODE_7BIT;
 277:Core/Src/main.c ****   hi2c1.Init.DualAddressMode = I2C_DUALADDRESS_DISABLE;
 278:Core/Src/main.c ****   hi2c1.Init.OwnAddress2 = 0;
 279:Core/Src/main.c ****   hi2c1.Init.OwnAddress2Masks = I2C_OA2_NOMASK;
 280:Core/Src/main.c ****   hi2c1.Init.GeneralCallMode = I2C_GENERALCALL_DISABLE;
 281:Core/Src/main.c ****   hi2c1.Init.NoStretchMode = I2C_NOSTRETCH_DISABLE;
 282:Core/Src/main.c ****   if (HAL_I2C_Init(&hi2c1) != HAL_OK)
 283:Core/Src/main.c ****   {
 284:Core/Src/main.c ****     Error_Handler();
 285:Core/Src/main.c ****   }
 286:Core/Src/main.c **** 
 287:Core/Src/main.c ****   /** Configure Analogue filter
 288:Core/Src/main.c ****   */
 289:Core/Src/main.c ****   if (HAL_I2CEx_ConfigAnalogFilter(&hi2c1, I2C_ANALOGFILTER_ENABLE) != HAL_OK)
 290:Core/Src/main.c ****   {
 291:Core/Src/main.c ****     Error_Handler();
 292:Core/Src/main.c ****   }
 293:Core/Src/main.c **** 
 294:Core/Src/main.c ****   /** Configure Digital filter
 295:Core/Src/main.c ****   */
 296:Core/Src/main.c ****   if (HAL_I2CEx_ConfigDigitalFilter(&hi2c1, 0) != HAL_OK)
 297:Core/Src/main.c ****   {
 298:Core/Src/main.c ****     Error_Handler();
 299:Core/Src/main.c ****   }
 300:Core/Src/main.c ****   /* USER CODE BEGIN I2C1_Init 2 */
 301:Core/Src/main.c **** 
 302:Core/Src/main.c ****   /* USER CODE END I2C1_Init 2 */
 303:Core/Src/main.c **** 
 304:Core/Src/main.c **** }
 305:Core/Src/main.c **** 
 306:Core/Src/main.c **** /**
 307:Core/Src/main.c ****   * @brief USART1 Initialization Function
 308:Core/Src/main.c ****   * @param None
 309:Core/Src/main.c ****   * @retval None
 310:Core/Src/main.c ****   */
 311:Core/Src/main.c **** static void MX_USART1_UART_Init(void)
 312:Core/Src/main.c **** {
 313:Core/Src/main.c **** 
 314:Core/Src/main.c ****   /* USER CODE BEGIN USART1_Init 0 */
 315:Core/Src/main.c **** 
 316:Core/Src/main.c ****   /* USER CODE END USART1_Init 0 */
 317:Core/Src/main.c **** 
 318:Core/Src/main.c ****   /* USER CODE BEGIN USART1_Init 1 */
ARM GAS  /var/folders/l4/6w9kflz11csb_6qsyz46nv3c0000gp/T//cck4x9NQ.s 			page 7


 319:Core/Src/main.c **** 
 320:Core/Src/main.c ****   /* USER CODE END USART1_Init 1 */
 321:Core/Src/main.c ****   huart1.Instance = USART1;
 322:Core/Src/main.c ****   huart1.Init.BaudRate = 115200;
 323:Core/Src/main.c ****   huart1.Init.WordLength = UART_WORDLENGTH_8B;
 324:Core/Src/main.c ****   huart1.Init.StopBits = UART_STOPBITS_1;
 325:Core/Src/main.c ****   huart1.Init.Parity = UART_PARITY_NONE;
 326:Core/Src/main.c ****   huart1.Init.Mode = UART_MODE_TX_RX;
 327:Core/Src/main.c ****   huart1.Init.HwFlowCtl = UART_HWCONTROL_NONE;
 328:Core/Src/main.c ****   huart1.Init.OverSampling = UART_OVERSAMPLING_16;
 329:Core/Src/main.c ****   huart1.Init.OneBitSampling = UART_ONE_BIT_SAMPLE_DISABLE;
 330:Core/Src/main.c ****   huart1.AdvancedInit.AdvFeatureInit = UART_ADVFEATURE_NO_INIT;
 331:Core/Src/main.c ****   if (HAL_UART_Init(&huart1) != HAL_OK)
 332:Core/Src/main.c ****   {
 333:Core/Src/main.c ****     Error_Handler();
 334:Core/Src/main.c ****   }
 335:Core/Src/main.c ****   /* USER CODE BEGIN USART1_Init 2 */
 336:Core/Src/main.c **** 
 337:Core/Src/main.c ****   /* USER CODE END USART1_Init 2 */
 338:Core/Src/main.c **** 
 339:Core/Src/main.c **** }
 340:Core/Src/main.c **** 
 341:Core/Src/main.c **** /**
 342:Core/Src/main.c ****   * @brief GPIO Initialization Function
 343:Core/Src/main.c ****   * @param None
 344:Core/Src/main.c ****   * @retval None
 345:Core/Src/main.c ****   */
 346:Core/Src/main.c **** static void MX_GPIO_Init(void)
 347:Core/Src/main.c **** {
  26              		.loc 1 347 1 view -0
  27              		.cfi_startproc
  28              		@ args = 0, pretend = 0, frame = 24
  29              		@ frame_needed = 0, uses_anonymous_args = 0
  30 0000 70B5     		push	{r4, r5, r6, lr}
  31              		.cfi_def_cfa_offset 16
  32              		.cfi_offset 4, -16
  33              		.cfi_offset 5, -12
  34              		.cfi_offset 6, -8
  35              		.cfi_offset 14, -4
  36 0002 86B0     		sub	sp, sp, #24
  37              		.cfi_def_cfa_offset 40
 348:Core/Src/main.c ****   GPIO_InitTypeDef GPIO_InitStruct = {0};
  38              		.loc 1 348 3 view .LVU1
  39              		.loc 1 348 20 is_stmt 0 view .LVU2
  40 0004 01AC     		add	r4, sp, #4
  41 0006 1422     		movs	r2, #20
  42 0008 0021     		movs	r1, #0
  43 000a 2000     		movs	r0, r4
  44 000c FFF7FEFF 		bl	memset
  45              	.LVL0:
 349:Core/Src/main.c ****   /* USER CODE BEGIN MX_GPIO_Init_1 */
 350:Core/Src/main.c **** 
 351:Core/Src/main.c ****   /* USER CODE END MX_GPIO_Init_1 */
 352:Core/Src/main.c **** 
 353:Core/Src/main.c ****   /* GPIO Ports Clock Enable */
 354:Core/Src/main.c ****   __HAL_RCC_GPIOA_CLK_ENABLE();
  46              		.loc 1 354 3 is_stmt 1 view .LVU3
ARM GAS  /var/folders/l4/6w9kflz11csb_6qsyz46nv3c0000gp/T//cck4x9NQ.s 			page 8


  47              	.LBB4:
  48              		.loc 1 354 3 view .LVU4
  49              		.loc 1 354 3 view .LVU5
  50 0010 0F4B     		ldr	r3, .L2
  51 0012 5A69     		ldr	r2, [r3, #20]
  52 0014 8021     		movs	r1, #128
  53 0016 8902     		lsls	r1, r1, #10
  54 0018 0A43     		orrs	r2, r1
  55 001a 5A61     		str	r2, [r3, #20]
  56              		.loc 1 354 3 view .LVU6
  57 001c 5B69     		ldr	r3, [r3, #20]
  58 001e 0B40     		ands	r3, r1
  59 0020 0093     		str	r3, [sp]
  60              		.loc 1 354 3 view .LVU7
  61 0022 009B     		ldr	r3, [sp]
  62              	.LBE4:
  63              		.loc 1 354 3 view .LVU8
 355:Core/Src/main.c **** 
 356:Core/Src/main.c ****   /*Configure GPIO pin Output Level */
 357:Core/Src/main.c ****   HAL_GPIO_WritePin(GPIOA, GPIO_PIN_4|GPIO_PIN_8, GPIO_PIN_RESET);
  64              		.loc 1 357 3 view .LVU9
  65 0024 8826     		movs	r6, #136
  66 0026 7600     		lsls	r6, r6, #1
  67 0028 9025     		movs	r5, #144
  68 002a ED05     		lsls	r5, r5, #23
  69 002c 0022     		movs	r2, #0
  70 002e 3100     		movs	r1, r6
  71 0030 2800     		movs	r0, r5
  72 0032 FFF7FEFF 		bl	HAL_GPIO_WritePin
  73              	.LVL1:
 358:Core/Src/main.c **** 
 359:Core/Src/main.c ****   /*Configure GPIO pins : PA4 PA8 */
 360:Core/Src/main.c ****   GPIO_InitStruct.Pin = GPIO_PIN_4|GPIO_PIN_8;
  74              		.loc 1 360 3 view .LVU10
  75              		.loc 1 360 23 is_stmt 0 view .LVU11
  76 0036 0196     		str	r6, [sp, #4]
 361:Core/Src/main.c ****   GPIO_InitStruct.Mode = GPIO_MODE_OUTPUT_PP;
  77              		.loc 1 361 3 is_stmt 1 view .LVU12
  78              		.loc 1 361 24 is_stmt 0 view .LVU13
  79 0038 0123     		movs	r3, #1
  80 003a 0293     		str	r3, [sp, #8]
 362:Core/Src/main.c ****   GPIO_InitStruct.Pull = GPIO_NOPULL;
  81              		.loc 1 362 3 is_stmt 1 view .LVU14
  82              		.loc 1 362 24 is_stmt 0 view .LVU15
  83 003c 0023     		movs	r3, #0
  84 003e 0393     		str	r3, [sp, #12]
 363:Core/Src/main.c ****   GPIO_InitStruct.Speed = GPIO_SPEED_FREQ_LOW;
  85              		.loc 1 363 3 is_stmt 1 view .LVU16
  86              		.loc 1 363 25 is_stmt 0 view .LVU17
  87 0040 0493     		str	r3, [sp, #16]
 364:Core/Src/main.c ****   HAL_GPIO_Init(GPIOA, &GPIO_InitStruct);
  88              		.loc 1 364 3 is_stmt 1 view .LVU18
  89 0042 2100     		movs	r1, r4
  90 0044 2800     		movs	r0, r5
  91 0046 FFF7FEFF 		bl	HAL_GPIO_Init
  92              	.LVL2:
 365:Core/Src/main.c **** 
ARM GAS  /var/folders/l4/6w9kflz11csb_6qsyz46nv3c0000gp/T//cck4x9NQ.s 			page 9


 366:Core/Src/main.c ****   /* USER CODE BEGIN MX_GPIO_Init_2 */
 367:Core/Src/main.c **** 
 368:Core/Src/main.c ****   /* USER CODE END MX_GPIO_Init_2 */
 369:Core/Src/main.c **** }
  93              		.loc 1 369 1 is_stmt 0 view .LVU19
  94 004a 06B0     		add	sp, sp, #24
  95              		@ sp needed
  96 004c 70BD     		pop	{r4, r5, r6, pc}
  97              	.L3:
  98 004e C046     		.align	2
  99              	.L2:
 100 0050 00100240 		.word	1073876992
 101              		.cfi_endproc
 102              	.LFE47:
 104              		.section	.rodata.ADV7513_Full_Diagnostics.str1.4,"aMS",%progbits,1
 105              		.align	2
 106              	.LC7:
 107 0000 556E6B6E 		.ascii	"Unknown\000"
 107      6F776E00 
 108              		.align	2
 109              	.LC9:
 110 0008 0A3D3D3D 		.ascii	"\012=== ADV7513 FULL DIAGNOSTICS ===\012\000"
 110      20414456 
 110      37353133 
 110      2046554C 
 110      4C204449 
 111 002b 00       		.align	2
 112              	.LC13:
 113 002c 30783431 		.ascii	"0x41 Power     : 0x%02X  (Power-Up = %d)\012\000"
 113      20506F77 
 113      65722020 
 113      2020203A 
 113      20307825 
 114 0056 0000     		.align	2
 115              	.LC15:
 116 0058 30783432 		.ascii	"0x42 Status    : 0x%02X  HPD=%d  RxSense=%d\012\000"
 116      20537461 
 116      74757320 
 116      2020203A 
 116      20307825 
 117 0085 000000   		.align	2
 118              	.LC17:
 119 0088 30783945 		.ascii	"0x9E PLL+Input : 0x%02X  PLL Locked=%d\012\000"
 119      20504C4C 
 119      2B496E70 
 119      7574203A 
 119      20307825 
 120              		.align	2
 121              	.LC19:
 122 00b0 30784130 		.ascii	"0xA0 TMDS Status: 0x%02X\012\000"
 122      20544D44 
 122      53205374 
 122      61747573 
 122      3A203078 
 123 00ca 0000     		.align	2
 124              	.LC21:
 125 00cc 30784131 		.ascii	"0xA1 TMDS Power : 0x%02X\012\000"
ARM GAS  /var/folders/l4/6w9kflz11csb_6qsyz46nv3c0000gp/T//cck4x9NQ.s 			page 10


 125      20544D44 
 125      5320506F 
 125      77657220 
 125      3A203078 
 126 00e6 0000     		.align	2
 127              	.LC25:
 128 00e8 30784338 		.ascii	"0xC8 DDC State : 0x%02X  (%s)\012\000"
 128      20444443 
 128      20537461 
 128      7465203A 
 128      20307825 
 129 0107 00       		.align	2
 130              	.LC27:
 131 0108 30783345 		.ascii	"0x3E Detected VIC: 0x%02X  (VIC = %d)\012\000"
 131      20446574 
 131      65637465 
 131      64205649 
 131      433A2030 
 132 012f 00       		.align	2
 133              	.LC29:
 134 0130 3D3D3D3D 		.ascii	"================================\012\012\000"
 134      3D3D3D3D 
 134      3D3D3D3D 
 134      3D3D3D3D 
 134      3D3D3D3D 
 135              		.section	.text.ADV7513_Full_Diagnostics,"ax",%progbits
 136              		.align	1
 137              		.global	ADV7513_Full_Diagnostics
 138              		.syntax unified
 139              		.code	16
 140              		.thumb_func
 142              	ADV7513_Full_Diagnostics:
 143              	.LFB49:
 370:Core/Src/main.c **** 
 371:Core/Src/main.c **** 
 372:Core/Src/main.c **** void ADV7513_Read_Interrupts(void)
 373:Core/Src/main.c **** {
 374:Core/Src/main.c ****     uint8_t interruptReg = 0;
 375:Core/Src/main.c ****     
 376:Core/Src/main.c ****     if(HAL_I2C_Mem_Read(&hi2c1, ADV7513_ADDR, 0x96, I2C_MEMADD_SIZE_8BIT, &interruptReg, 1, HAL_MAX
 377:Core/Src/main.c ****     {
 378:Core/Src/main.c ****         Error_Handler();
 379:Core/Src/main.c ****     }
 380:Core/Src/main.c ****     
 381:Core/Src/main.c ****     // ą¤čĆąŠą▓ąĄčĆą║ą░ ą▒ąĖčéą░ VSYNC (ą▒ąĖčé 5)
 382:Core/Src/main.c ****     if((interruptReg >> 5) & 1)   // ąĖčüą┐čĆą░ą▓ą╗ąĄąĮąŠ: ą┤ąŠą▒ą░ą▓ą╗ąĄąĮčŗ čüą║ąŠą▒ą║ąĖ ąĖ &1
 383:Core/Src/main.c ****     {
 384:Core/Src/main.c ****         ADV7513_WriteVerifyReg(0x96, 0x00, "CLEAR_VSYNC_INT");
 385:Core/Src/main.c ****     }
 386:Core/Src/main.c **** }
 387:Core/Src/main.c **** 
 388:Core/Src/main.c **** 
 389:Core/Src/main.c **** 
 390:Core/Src/main.c **** /* USER CODE BEGIN 4 */
 391:Core/Src/main.c **** void ADV7513_Full_Diagnostics(void)
 392:Core/Src/main.c **** {
 144              		.loc 1 392 1 is_stmt 1 view -0
ARM GAS  /var/folders/l4/6w9kflz11csb_6qsyz46nv3c0000gp/T//cck4x9NQ.s 			page 11


 145              		.cfi_startproc
 146              		@ args = 0, pretend = 0, frame = 112
 147              		@ frame_needed = 0, uses_anonymous_args = 0
 148 0000 F0B5     		push	{r4, r5, r6, r7, lr}
 149              		.cfi_def_cfa_offset 20
 150              		.cfi_offset 4, -20
 151              		.cfi_offset 5, -16
 152              		.cfi_offset 6, -12
 153              		.cfi_offset 7, -8
 154              		.cfi_offset 14, -4
 155 0002 D646     		mov	lr, r10
 156 0004 4F46     		mov	r7, r9
 157 0006 4646     		mov	r6, r8
 158 0008 C0B5     		push	{r6, r7, lr}
 159              		.cfi_def_cfa_offset 32
 160              		.cfi_offset 8, -32
 161              		.cfi_offset 9, -28
 162              		.cfi_offset 10, -24
 163 000a A0B0     		sub	sp, sp, #128
 164              		.cfi_def_cfa_offset 160
 393:Core/Src/main.c ****     uint8_t reg;
 165              		.loc 1 393 5 view .LVU21
 394:Core/Src/main.c ****     char buf[80];
 166              		.loc 1 394 5 view .LVU22
 395:Core/Src/main.c **** 
 396:Core/Src/main.c ****     HAL_UART_Transmit(&huart1, (uint8_t*)"\n=== ADV7513 FULL DIAGNOSTICS ===\n", 34, HAL_MAX_DELAY)
 167              		.loc 1 396 5 view .LVU23
 168 000c 0126     		movs	r6, #1
 169 000e 7642     		rsbs	r6, r6, #0
 170 0010 6F49     		ldr	r1, .L7
 171 0012 7048     		ldr	r0, .L7+4
 172 0014 3300     		movs	r3, r6
 173 0016 2222     		movs	r2, #34
 174 0018 8046     		mov	r8, r0
 175 001a FFF7FEFF 		bl	HAL_UART_Transmit
 176              	.LVL3:
 397:Core/Src/main.c **** 
 398:Core/Src/main.c ****     // 1. Power status
 399:Core/Src/main.c ****     HAL_I2C_Mem_Read(&hi2c1, ADV7513_ADDR, 0x41, I2C_MEMADD_SIZE_8BIT, &reg, 1, HAL_MAX_DELAY);
 177              		.loc 1 399 5 view .LVU24
 178 001e 6E4F     		ldr	r7, .L7+8
 179 0020 0296     		str	r6, [sp, #8]
 180 0022 0123     		movs	r3, #1
 181 0024 9946     		mov	r9, r3
 182 0026 0193     		str	r3, [sp, #4]
 183 0028 7F25     		movs	r5, #127
 184 002a 6D44     		add	r5, r5, sp
 185 002c 0095     		str	r5, [sp]
 186 002e 4122     		movs	r2, #65
 187 0030 7221     		movs	r1, #114
 188 0032 3800     		movs	r0, r7
 189 0034 FFF7FEFF 		bl	HAL_I2C_Mem_Read
 190              	.LVL4:
 400:Core/Src/main.c ****     sprintf(buf, "0x41 Power     : 0x%02X  (Power-Up = %d)\n", reg, (reg & 0x10) ? 1 : 0);
 191              		.loc 1 400 5 view .LVU25
 192 0038 2A78     		ldrb	r2, [r5]
 193              		.loc 1 400 86 is_stmt 0 view .LVU26
ARM GAS  /var/folders/l4/6w9kflz11csb_6qsyz46nv3c0000gp/T//cck4x9NQ.s 			page 12


 194 003a 1311     		asrs	r3, r2, #4
 195              		.loc 1 400 5 view .LVU27
 196 003c 4946     		mov	r1, r9
 197 003e 0B40     		ands	r3, r1
 198 0040 6649     		ldr	r1, .L7+12
 199 0042 0BAC     		add	r4, sp, #44
 200 0044 2000     		movs	r0, r4
 201 0046 FFF7FEFF 		bl	sprintf
 202              	.LVL5:
 401:Core/Src/main.c ****     HAL_UART_Transmit(&huart1, (uint8_t*)buf, strlen(buf), HAL_MAX_DELAY);
 203              		.loc 1 401 5 is_stmt 1 view .LVU28
 204              		.loc 1 401 47 is_stmt 0 view .LVU29
 205 004a 2000     		movs	r0, r4
 206 004c FFF7FEFF 		bl	strlen
 207              	.LVL6:
 208              		.loc 1 401 5 discriminator 1 view .LVU30
 209 0050 82B2     		uxth	r2, r0
 210 0052 3300     		movs	r3, r6
 211 0054 2100     		movs	r1, r4
 212 0056 4046     		mov	r0, r8
 213 0058 FFF7FEFF 		bl	HAL_UART_Transmit
 214              	.LVL7:
 402:Core/Src/main.c **** 
 403:Core/Src/main.c ****     // 2. HPD ąĖ RxSense (čüą░ą╝ąŠąĄ ą▓ą░ąČąĮąŠąĄ)
 404:Core/Src/main.c ****     HAL_I2C_Mem_Read(&hi2c1, ADV7513_ADDR, 0x42, I2C_MEMADD_SIZE_8BIT, &reg, 1, HAL_MAX_DELAY);
 215              		.loc 1 404 5 is_stmt 1 view .LVU31
 216 005c 0296     		str	r6, [sp, #8]
 217 005e 4B46     		mov	r3, r9
 218 0060 0193     		str	r3, [sp, #4]
 219 0062 0095     		str	r5, [sp]
 220 0064 4222     		movs	r2, #66
 221 0066 7221     		movs	r1, #114
 222 0068 3800     		movs	r0, r7
 223 006a FFF7FEFF 		bl	HAL_I2C_Mem_Read
 224              	.LVL8:
 405:Core/Src/main.c ****     sprintf(buf, "0x42 Status    : 0x%02X  HPD=%d  RxSense=%d\n", 
 225              		.loc 1 405 5 view .LVU32
 226 006e 2A78     		ldrb	r2, [r5]
 227 0070 9309     		lsrs	r3, r2, #6
 228 0072 5009     		lsrs	r0, r2, #5
 229 0074 0121     		movs	r1, #1
 230 0076 8A46     		mov	r10, r1
 231 0078 0B40     		ands	r3, r1
 232 007a 9C46     		mov	ip, r3
 233 007c 5849     		ldr	r1, .L7+16
 234 007e 5346     		mov	r3, r10
 235 0080 1840     		ands	r0, r3
 236 0082 0090     		str	r0, [sp]
 237 0084 6346     		mov	r3, ip
 238 0086 2000     		movs	r0, r4
 239 0088 FFF7FEFF 		bl	sprintf
 240              	.LVL9:
 406:Core/Src/main.c ****             reg, (reg>>6)&1, (reg>>5)&1);
 407:Core/Src/main.c ****     HAL_UART_Transmit(&huart1, (uint8_t*)buf, strlen(buf), HAL_MAX_DELAY);
 241              		.loc 1 407 5 view .LVU33
 242              		.loc 1 407 47 is_stmt 0 view .LVU34
 243 008c 2000     		movs	r0, r4
ARM GAS  /var/folders/l4/6w9kflz11csb_6qsyz46nv3c0000gp/T//cck4x9NQ.s 			page 13


 244 008e FFF7FEFF 		bl	strlen
 245              	.LVL10:
 246              		.loc 1 407 5 discriminator 1 view .LVU35
 247 0092 82B2     		uxth	r2, r0
 248 0094 3300     		movs	r3, r6
 249 0096 2100     		movs	r1, r4
 250 0098 4046     		mov	r0, r8
 251 009a FFF7FEFF 		bl	HAL_UART_Transmit
 252              	.LVL11:
 408:Core/Src/main.c **** 
 409:Core/Src/main.c ****     // 3. PLL Lock + Input Status
 410:Core/Src/main.c ****     HAL_I2C_Mem_Read(&hi2c1, ADV7513_ADDR, 0x9E, I2C_MEMADD_SIZE_8BIT, &reg, 1, HAL_MAX_DELAY);
 253              		.loc 1 410 5 is_stmt 1 view .LVU36
 254 009e 0296     		str	r6, [sp, #8]
 255 00a0 4B46     		mov	r3, r9
 256 00a2 0193     		str	r3, [sp, #4]
 257 00a4 0095     		str	r5, [sp]
 258 00a6 9E22     		movs	r2, #158
 259 00a8 7221     		movs	r1, #114
 260 00aa 3800     		movs	r0, r7
 261 00ac FFF7FEFF 		bl	HAL_I2C_Mem_Read
 262              	.LVL12:
 411:Core/Src/main.c ****     sprintf(buf, "0x9E PLL+Input : 0x%02X  PLL Locked=%d\n", reg, (reg>>4)&1);
 263              		.loc 1 411 5 view .LVU37
 264 00b0 2A78     		ldrb	r2, [r5]
 265 00b2 1309     		lsrs	r3, r2, #4
 266 00b4 5146     		mov	r1, r10
 267 00b6 0B40     		ands	r3, r1
 268 00b8 4A49     		ldr	r1, .L7+20
 269 00ba 2000     		movs	r0, r4
 270 00bc FFF7FEFF 		bl	sprintf
 271              	.LVL13:
 412:Core/Src/main.c ****     HAL_UART_Transmit(&huart1, (uint8_t*)buf, strlen(buf), HAL_MAX_DELAY);
 272              		.loc 1 412 5 view .LVU38
 273              		.loc 1 412 47 is_stmt 0 view .LVU39
 274 00c0 2000     		movs	r0, r4
 275 00c2 FFF7FEFF 		bl	strlen
 276              	.LVL14:
 277              		.loc 1 412 5 discriminator 1 view .LVU40
 278 00c6 82B2     		uxth	r2, r0
 279 00c8 3300     		movs	r3, r6
 280 00ca 2100     		movs	r1, r4
 281 00cc 4046     		mov	r0, r8
 282 00ce FFF7FEFF 		bl	HAL_UART_Transmit
 283              	.LVL15:
 413:Core/Src/main.c **** 
 414:Core/Src/main.c ****     // 4. TMDS Status
 415:Core/Src/main.c ****     HAL_I2C_Mem_Read(&hi2c1, ADV7513_ADDR, 0xA0, I2C_MEMADD_SIZE_8BIT, &reg, 1, HAL_MAX_DELAY);
 284              		.loc 1 415 5 is_stmt 1 view .LVU41
 285 00d2 0296     		str	r6, [sp, #8]
 286 00d4 4B46     		mov	r3, r9
 287 00d6 0193     		str	r3, [sp, #4]
 288 00d8 0095     		str	r5, [sp]
 289 00da A022     		movs	r2, #160
 290 00dc 7221     		movs	r1, #114
 291 00de 3800     		movs	r0, r7
 292 00e0 FFF7FEFF 		bl	HAL_I2C_Mem_Read
ARM GAS  /var/folders/l4/6w9kflz11csb_6qsyz46nv3c0000gp/T//cck4x9NQ.s 			page 14


 293              	.LVL16:
 416:Core/Src/main.c ****     sprintf(buf, "0xA0 TMDS Status: 0x%02X\n", reg);
 294              		.loc 1 416 5 view .LVU42
 295 00e4 2A78     		ldrb	r2, [r5]
 296 00e6 4049     		ldr	r1, .L7+24
 297 00e8 2000     		movs	r0, r4
 298 00ea FFF7FEFF 		bl	sprintf
 299              	.LVL17:
 417:Core/Src/main.c ****     HAL_UART_Transmit(&huart1, (uint8_t*)buf, strlen(buf), HAL_MAX_DELAY);
 300              		.loc 1 417 5 view .LVU43
 301              		.loc 1 417 47 is_stmt 0 view .LVU44
 302 00ee 2000     		movs	r0, r4
 303 00f0 FFF7FEFF 		bl	strlen
 304              	.LVL18:
 305              		.loc 1 417 5 discriminator 1 view .LVU45
 306 00f4 82B2     		uxth	r2, r0
 307 00f6 3300     		movs	r3, r6
 308 00f8 2100     		movs	r1, r4
 309 00fa 4046     		mov	r0, r8
 310 00fc FFF7FEFF 		bl	HAL_UART_Transmit
 311              	.LVL19:
 418:Core/Src/main.c **** 
 419:Core/Src/main.c ****     // 5. TMDS Power
 420:Core/Src/main.c ****     HAL_I2C_Mem_Read(&hi2c1, ADV7513_ADDR, 0xA1, I2C_MEMADD_SIZE_8BIT, &reg, 1, HAL_MAX_DELAY);
 312              		.loc 1 420 5 is_stmt 1 view .LVU46
 313 0100 0296     		str	r6, [sp, #8]
 314 0102 4B46     		mov	r3, r9
 315 0104 0193     		str	r3, [sp, #4]
 316 0106 0095     		str	r5, [sp]
 317 0108 A122     		movs	r2, #161
 318 010a 7221     		movs	r1, #114
 319 010c 3800     		movs	r0, r7
 320 010e FFF7FEFF 		bl	HAL_I2C_Mem_Read
 321              	.LVL20:
 421:Core/Src/main.c ****     sprintf(buf, "0xA1 TMDS Power : 0x%02X\n", reg);
 322              		.loc 1 421 5 view .LVU47
 323 0112 2A78     		ldrb	r2, [r5]
 324 0114 3549     		ldr	r1, .L7+28
 325 0116 2000     		movs	r0, r4
 326 0118 FFF7FEFF 		bl	sprintf
 327              	.LVL21:
 422:Core/Src/main.c ****     HAL_UART_Transmit(&huart1, (uint8_t*)buf, strlen(buf), HAL_MAX_DELAY);
 328              		.loc 1 422 5 view .LVU48
 329              		.loc 1 422 47 is_stmt 0 view .LVU49
 330 011c 2000     		movs	r0, r4
 331 011e FFF7FEFF 		bl	strlen
 332              	.LVL22:
 333              		.loc 1 422 5 discriminator 1 view .LVU50
 334 0122 82B2     		uxth	r2, r0
 335 0124 3300     		movs	r3, r6
 336 0126 2100     		movs	r1, r4
 337 0128 4046     		mov	r0, r8
 338 012a FFF7FEFF 		bl	HAL_UART_Transmit
 339              	.LVL23:
 423:Core/Src/main.c **** 
 424:Core/Src/main.c ****     // 6. DDC Controller State (ąŠčćąĄąĮčī ą▓ą░ąČąĮąŠ!)
 425:Core/Src/main.c ****     HAL_I2C_Mem_Read(&hi2c1, ADV7513_ADDR, 0xC8, I2C_MEMADD_SIZE_8BIT, &reg, 1, HAL_MAX_DELAY);
ARM GAS  /var/folders/l4/6w9kflz11csb_6qsyz46nv3c0000gp/T//cck4x9NQ.s 			page 15


 340              		.loc 1 425 5 is_stmt 1 view .LVU51
 341 012e 0296     		str	r6, [sp, #8]
 342 0130 4B46     		mov	r3, r9
 343 0132 0193     		str	r3, [sp, #4]
 344 0134 0095     		str	r5, [sp]
 345 0136 C822     		movs	r2, #200
 346 0138 7221     		movs	r1, #114
 347 013a 3800     		movs	r0, r7
 348 013c FFF7FEFF 		bl	HAL_I2C_Mem_Read
 349              	.LVL24:
 426:Core/Src/main.c ****     uint8_t ddc = reg & 0x0F;
 350              		.loc 1 426 5 view .LVU52
 351              		.loc 1 426 23 is_stmt 0 view .LVU53
 352 0140 2A78     		ldrb	r2, [r5]
 353              		.loc 1 426 13 view .LVU54
 354 0142 0F20     		movs	r0, #15
 355 0144 1040     		ands	r0, r2
 356              	.LVL25:
 427:Core/Src/main.c ****     const char* states[] = {
 357              		.loc 1 427 5 is_stmt 1 view .LVU55
 358              		.loc 1 427 17 is_stmt 0 view .LVU56
 359 0146 05AC     		add	r4, sp, #20
 360 0148 294B     		ldr	r3, .L7+32
 361 014a 2100     		movs	r1, r4
 362 014c E0CB     		ldmia	r3!, {r5, r6, r7}
 363 014e E0C1     		stmia	r1!, {r5, r6, r7}
 364 0150 70CB     		ldmia	r3!, {r4, r5, r6}
 365 0152 70C1     		stmia	r1!, {r4, r5, r6}
 428:Core/Src/main.c ****         "In Reset (No HPD)",
 429:Core/Src/main.c ****         "Reading EDID",
 430:Core/Src/main.c ****         "IDLE (EDID Ready)",
 431:Core/Src/main.c ****         "Initializing HDCP",
 432:Core/Src/main.c ****         "HDCP Enabled",
 433:Core/Src/main.c ****         "Initializing HDCP Repeater"
 434:Core/Src/main.c ****     };
 435:Core/Src/main.c ****     sprintf(buf, "0xC8 DDC State : 0x%02X  (%s)\n", reg, (ddc <= 5) ? states[ddc] : "Unknown");
 366              		.loc 1 435 5 is_stmt 1 view .LVU57
 367 0154 0528     		cmp	r0, #5
 368 0156 39D8     		bhi	.L6
 369              		.loc 1 435 5 is_stmt 0 discriminator 1 view .LVU58
 370 0158 8000     		lsls	r0, r0, #2
 371              	.LVL26:
 372              		.loc 1 435 5 discriminator 1 view .LVU59
 373 015a 05AB     		add	r3, sp, #20
 374 015c C358     		ldr	r3, [r0, r3]
 375              	.L5:
 376              		.loc 1 435 5 discriminator 4 view .LVU60
 377 015e 2549     		ldr	r1, .L7+36
 378 0160 0BAC     		add	r4, sp, #44
 379 0162 2000     		movs	r0, r4
 380 0164 FFF7FEFF 		bl	sprintf
 381              	.LVL27:
 436:Core/Src/main.c ****     HAL_UART_Transmit(&huart1, (uint8_t*)buf, strlen(buf), HAL_MAX_DELAY);
 382              		.loc 1 436 5 is_stmt 1 view .LVU61
 383              		.loc 1 436 47 is_stmt 0 view .LVU62
 384 0168 2000     		movs	r0, r4
 385 016a FFF7FEFF 		bl	strlen
ARM GAS  /var/folders/l4/6w9kflz11csb_6qsyz46nv3c0000gp/T//cck4x9NQ.s 			page 16


 386              	.LVL28:
 387              		.loc 1 436 5 discriminator 1 view .LVU63
 388 016e 0126     		movs	r6, #1
 389 0170 7642     		rsbs	r6, r6, #0
 390 0172 82B2     		uxth	r2, r0
 391 0174 174D     		ldr	r5, .L7+4
 392 0176 3300     		movs	r3, r6
 393 0178 2100     		movs	r1, r4
 394 017a 2800     		movs	r0, r5
 395 017c FFF7FEFF 		bl	HAL_UART_Transmit
 396              	.LVL29:
 437:Core/Src/main.c **** 
 438:Core/Src/main.c ****     // 7. Detected VIC (ąŠčćąĄąĮčī ą▓ą░ąČąĮąŠ!)
 439:Core/Src/main.c ****     HAL_I2C_Mem_Read(&hi2c1, ADV7513_ADDR, 0x3E, I2C_MEMADD_SIZE_8BIT, &reg, 1, HAL_MAX_DELAY);
 397              		.loc 1 439 5 is_stmt 1 view .LVU64
 398 0180 1548     		ldr	r0, .L7+8
 399 0182 0296     		str	r6, [sp, #8]
 400 0184 0123     		movs	r3, #1
 401 0186 0193     		str	r3, [sp, #4]
 402 0188 7F27     		movs	r7, #127
 403 018a 6F44     		add	r7, r7, sp
 404 018c 0097     		str	r7, [sp]
 405 018e 3E22     		movs	r2, #62
 406 0190 7221     		movs	r1, #114
 407 0192 FFF7FEFF 		bl	HAL_I2C_Mem_Read
 408              	.LVL30:
 440:Core/Src/main.c ****     sprintf(buf, "0x3E Detected VIC: 0x%02X  (VIC = %d)\n", reg, (reg >> 2) & 0x3F);
 409              		.loc 1 440 5 view .LVU65
 410 0196 3A78     		ldrb	r2, [r7]
 411 0198 9308     		lsrs	r3, r2, #2
 412 019a 1749     		ldr	r1, .L7+40
 413 019c 2000     		movs	r0, r4
 414 019e FFF7FEFF 		bl	sprintf
 415              	.LVL31:
 441:Core/Src/main.c ****     HAL_UART_Transmit(&huart1, (uint8_t*)buf, strlen(buf), HAL_MAX_DELAY);
 416              		.loc 1 441 5 view .LVU66
 417              		.loc 1 441 47 is_stmt 0 view .LVU67
 418 01a2 2000     		movs	r0, r4
 419 01a4 FFF7FEFF 		bl	strlen
 420              	.LVL32:
 421              		.loc 1 441 5 discriminator 1 view .LVU68
 422 01a8 82B2     		uxth	r2, r0
 423 01aa 3300     		movs	r3, r6
 424 01ac 2100     		movs	r1, r4
 425 01ae 2800     		movs	r0, r5
 426 01b0 FFF7FEFF 		bl	HAL_UART_Transmit
 427              	.LVL33:
 442:Core/Src/main.c **** 
 443:Core/Src/main.c ****     HAL_UART_Transmit(&huart1, (uint8_t*)"================================\n\n", 33, HAL_MAX_DELAY)
 428              		.loc 1 443 5 is_stmt 1 view .LVU69
 429 01b4 1149     		ldr	r1, .L7+44
 430 01b6 3300     		movs	r3, r6
 431 01b8 2122     		movs	r2, #33
 432 01ba 2800     		movs	r0, r5
 433 01bc FFF7FEFF 		bl	HAL_UART_Transmit
 434              	.LVL34:
 444:Core/Src/main.c **** }
ARM GAS  /var/folders/l4/6w9kflz11csb_6qsyz46nv3c0000gp/T//cck4x9NQ.s 			page 17


 435              		.loc 1 444 1 is_stmt 0 view .LVU70
 436 01c0 20B0     		add	sp, sp, #128
 437              		@ sp needed
 438 01c2 E0BC     		pop	{r5, r6, r7}
 439 01c4 BA46     		mov	r10, r7
 440 01c6 B146     		mov	r9, r6
 441 01c8 A846     		mov	r8, r5
 442 01ca F0BD     		pop	{r4, r5, r6, r7, pc}
 443              	.LVL35:
 444              	.L6:
 435:Core/Src/main.c ****     HAL_UART_Transmit(&huart1, (uint8_t*)buf, strlen(buf), HAL_MAX_DELAY);
 445              		.loc 1 435 5 discriminator 2 view .LVU71
 446 01cc 0C4B     		ldr	r3, .L7+48
 447 01ce C6E7     		b	.L5
 448              	.L8:
 449              		.align	2
 450              	.L7:
 451 01d0 08000000 		.word	.LC9
 452 01d4 00000000 		.word	huart1
 453 01d8 00000000 		.word	hi2c1
 454 01dc 2C000000 		.word	.LC13
 455 01e0 58000000 		.word	.LC15
 456 01e4 88000000 		.word	.LC17
 457 01e8 B0000000 		.word	.LC19
 458 01ec CC000000 		.word	.LC21
 459 01f0 00000000 		.word	.LANCHOR0
 460 01f4 E8000000 		.word	.LC25
 461 01f8 08010000 		.word	.LC27
 462 01fc 30010000 		.word	.LC29
 463 0200 00000000 		.word	.LC7
 464              		.cfi_endproc
 465              	.LFE49:
 467              		.section	.text.Error_Handler,"ax",%progbits
 468              		.align	1
 469              		.global	Error_Handler
 470              		.syntax unified
 471              		.code	16
 472              		.thumb_func
 474              	Error_Handler:
 475              	.LFB54:
 445:Core/Src/main.c **** 
 446:Core/Src/main.c **** 
 447:Core/Src/main.c **** void ADV7513_PowerInit(void)
 448:Core/Src/main.c **** {
 449:Core/Src/main.c ****     // 1. Power Up
 450:Core/Src/main.c ****     ADV7513_WriteVerifyReg(0x41, 0x10, "POWER_UP");
 451:Core/Src/main.c ****     HAL_Delay(200);
 452:Core/Src/main.c **** 
 453:Core/Src/main.c ****     // 2. Fixed PLL registers + High Frequency mode
 454:Core/Src/main.c ****     ADV7513_WriteVerifyReg(0x98, 0x03, "PLL0");
 455:Core/Src/main.c ****     ADV7513_WriteVerifyReg(0x9A, 0xE0, "PLL1");
 456:Core/Src/main.c ****     ADV7513_WriteVerifyReg(0x9C, 0x30, "PLL2");
 457:Core/Src/main.c ****     ADV7513_WriteVerifyReg(0x9D, 0x61, "PLL3_HighFreq");   // ą▓ą░ąČąĮąŠ ą┤ą╗čÅ 40 ą£ąōčå
 458:Core/Src/main.c ****     ADV7513_WriteVerifyReg(0xA2, 0xA4, "PLL4");
 459:Core/Src/main.c ****     ADV7513_WriteVerifyReg(0xA3, 0xA4, "PLL5");
 460:Core/Src/main.c ****     ADV7513_WriteVerifyReg(0xE0, 0xD0, "PLL6");
 461:Core/Src/main.c ****     ADV7513_WriteVerifyReg(0xF9, 0x00, "PLL7");
ARM GAS  /var/folders/l4/6w9kflz11csb_6qsyz46nv3c0000gp/T//cck4x9NQ.s 			page 18


 462:Core/Src/main.c **** 
 463:Core/Src/main.c ****     
 464:Core/Src/main.c **** 
 465:Core/Src/main.c **** 
 466:Core/Src/main.c ****     // ADV7513_WriteVerifyReg(0x15, 0x05, "RGB888-DDR-ON");
 467:Core/Src/main.c ****     // ADV7513_WriteVerifyReg(0xD0, 0x3C, "NO SYNC PULSE");
 468:Core/Src/main.c ****     uint8_t reg = 0;
 469:Core/Src/main.c **** 
 470:Core/Src/main.c **** 
 471:Core/Src/main.c ****     HAL_I2C_Mem_Read(&hi2c1, ADV7513_ADDR, 0x9E, I2C_MEMADD_SIZE_8BIT, &reg, 1, HAL_MAX_DELAY);
 472:Core/Src/main.c ****     if(!((reg>>4)&1)){
 473:Core/Src/main.c ****       Error_Handler();
 474:Core/Src/main.c ****     }
 475:Core/Src/main.c ****     HAL_GPIO_TogglePin(GPIOA, GPIO_PIN_8);
 476:Core/Src/main.c **** }
 477:Core/Src/main.c **** 
 478:Core/Src/main.c **** 
 479:Core/Src/main.c **** void ADV7513_HDMI_Init(void)
 480:Core/Src/main.c **** {
 481:Core/Src/main.c **** 
 482:Core/Src/main.c ****     
 483:Core/Src/main.c ****     // // // ========== 3. ąĀąĄą║ąŠą╝ąĄąĮą┤ąŠą▓ą░ąĮąĮčŗąĄ ADI čĆąĄą│ąĖčüčéčĆčŗ ==========
 484:Core/Src/main.c ****     ADV7513_WriteVerifyReg(0x99, 0x02, "ADI_RECOMMENDED");
 485:Core/Src/main.c ****     ADV7513_WriteVerifyReg(0xA5, 0x44, "ADI_RECOMMENDED");
 486:Core/Src/main.c ****     ADV7513_WriteVerifyReg(0xAB, 0x40, "ADI_RECOMMENDED");
 487:Core/Src/main.c ****     ADV7513_WriteVerifyReg(0xD1, 0xFF, "ADI_RECOMMENDED");
 488:Core/Src/main.c ****     ADV7513_WriteVerifyReg(0xFA, 0x7D, "ADI_RECOMMENDED");
 489:Core/Src/main.c ****     ADV7513_WriteVerifyReg(0x49, 0xA8, "must be set to default");
 490:Core/Src/main.c ****     ADV7513_WriteVerifyReg(0x4C, 0x00, "must be set to default");
 491:Core/Src/main.c ****     ADV7513_WriteVerifyReg(0x4B, 0x80, "Clear_AVMute");   // ąŠą▒čÅąĘą░čéąĄą╗čīąĮąŠ
 492:Core/Src/main.c ****     ADV7513_WriteVerifyReg(0xDE, 0x10, "TMDS_CLK_DRIVER_ON"); //default
 493:Core/Src/main.c ****     
 494:Core/Src/main.c ****     // // // ========== 4. ąØą░čüčéčĆąŠą╣ą║ą░ ą▓ąĖą┤ąĄąŠčäąŠčĆą╝ą░čéą░ ==========
 495:Core/Src/main.c ****     ADV7513_WriteVerifyReg(0x15, 0x00, "RGB888_4:4:4");
 496:Core/Src/main.c ****     ADV7513_WriteVerifyReg(0x16, 0x60, "Output_Format_444_8bit");
 497:Core/Src/main.c ****     ADV7513_WriteVerifyReg(0x18, 0x46, "CSC_Disabled");    // ąĖčüą┐čĆą░ą▓ą╗ąĄąĮąŠ
 498:Core/Src/main.c ****     // //čéąŠčćąĮąŠ ą▓ąĄčĆąĮąŠ
 499:Core/Src/main.c ****     // // // ========== 5. ą¤ąŠą╗čÅčĆąĮąŠčüčéąĖ (ąĘą░ą▓ąĖčüąĖčé ąŠčé ą▓ą░čłąĄą│ąŠ LTDC) ==========
 500:Core/Src/main.c ****     ADV7513_WriteVerifyReg(0x17, 0x60, "HS VS AL 4:3"); 
 501:Core/Src/main.c ****     // // // ========== 6. ąÆą║ą╗čÄčćąĄąĮąĖąĄ TMDS ą▓čŗčģąŠą┤ą░ ==========
 502:Core/Src/main.c ****     ADV7513_WriteVerifyReg(0x40, 0x80, "TMDS_ENABLE");  // GC packet enabled   
 503:Core/Src/main.c ****     // // // ========== 7. ąĀąĄąČąĖą╝ HDMI ąĖ AVI InfoFrame ==========
 504:Core/Src/main.c **** 
 505:Core/Src/main.c ****       ADV7513_WriteVerifyReg(0xAF, 0x02, "HDMI ON");
 506:Core/Src/main.c ****       ADV7513_WriteVerifyReg(0x44, 0x10," AVI PACKET ENABLE");
 507:Core/Src/main.c ****       ADV7513_WriteVerifyReg(0x55, 0x00, "AVI");
 508:Core/Src/main.c **** 
 509:Core/Src/main.c **** 
 510:Core/Src/main.c ****     // // ========== 8. ąŚą░ą┤ąĄčĆąČą║ą░ čéą░ą║čéą░ (ąŠą┐čåąĖąŠąĮą░ą╗čīąĮąŠ) ==========
 511:Core/Src/main.c ****     // ADV7513_WriteVerifyReg(0xBA, 0x60, "CLOCK_DELAY_0ns");
 512:Core/Src/main.c ****     // ========== 9. ąŻą┐čĆą░ą▓ą╗ąĄąĮąĖąĄ čéą░ą║čéąŠą▓čŗą╝ ą┤čĆą░ą╣ą▓ąĄčĆąŠą╝ TMDS ==========
 513:Core/Src/main.c ****     // ąĀąĄą│ąĖčüčéčĆ 0xDE, ą▒ąĖčé 3 = 0 ą┤ą╗čÅ ą▓ą║ą╗čÄčćąĄąĮąĖčÅ clock driver
 514:Core/Src/main.c **** 
 515:Core/Src/main.c **** 
 516:Core/Src/main.c ****     
 517:Core/Src/main.c **** 
 518:Core/Src/main.c **** }
ARM GAS  /var/folders/l4/6w9kflz11csb_6qsyz46nv3c0000gp/T//cck4x9NQ.s 			page 19


 519:Core/Src/main.c **** 
 520:Core/Src/main.c **** 
 521:Core/Src/main.c **** HAL_StatusTypeDef ADV7513_ReadEDIDSegment(I2C_HandleTypeDef *hi2c_dev, uint8_t segment, uint8_t *ed
 522:Core/Src/main.c **** {
 523:Core/Src/main.c ****     uint8_t reg_data = 0;
 524:Core/Src/main.c ****     uint32_t tickstart = HAL_GetTick();
 525:Core/Src/main.c **** 
 526:Core/Src/main.c ****     // --- 1. ąĪą▒čĆąŠčü čäą╗ą░ą│ą░ ą│ąŠčéąŠą▓ąĮąŠčüčéąĖ EDID ---
 527:Core/Src/main.c ****     // ą¦ąĖčéą░ąĄą╝ čĆąĄą│ąĖčüčéčĆ 0x96, čćčéąŠą▒čŗ čāą▒ąĄą┤ąĖčéčīčüčÅ, čćčéąŠ čäą╗ą░ą│ ą│ąŠčéąŠą▓ą
 528:Core/Src/main.c ****     if (HAL_I2C_Mem_Read(hi2c_dev, ADV7513_MAIN_ADDR, REG_EDID_RDY_FLAG, I2C_MEMADD_SIZE_8BIT, &reg
 529:Core/Src/main.c ****         return HAL_ERROR;
 530:Core/Src/main.c ****     }
 531:Core/Src/main.c **** 
 532:Core/Src/main.c ****     // --- 2. ąŚą░ą┐čĆąŠčü ąĮąŠą▓ąŠą│ąŠ čüąĄą│ą╝ąĄąĮčéą░ EDID ---
 533:Core/Src/main.c ****     // ąŚą░ą┐ąĖčüčŗą▓ą░ąĄą╝ ąĮąŠą╝ąĄčĆ ąĮčāąČąĮąŠą│ąŠ čüąĄą│ą╝ąĄąĮčéą░ ą▓ čĆąĄą│ąĖčüčéčĆ 0xC4.
 534:Core/Src/main.c ****     // ąŁčéąŠ ą┤ąĄą╣čüčéą▓ąĖąĄ ąĖąĮąĖčåąĖąĖčĆčāąĄčé ą┐čĆąŠčåąĄčüčü čćčéąĄąĮąĖčÅ EDID ą╝ą░čüčéąĄčĆąŠ
 535:Core/Src/main.c ****     reg_data = segment;
 536:Core/Src/main.c ****     if (HAL_I2C_Mem_Write(hi2c_dev, ADV7513_MAIN_ADDR, REG_EDID_SEGMENT, I2C_MEMADD_SIZE_8BIT, &reg
 537:Core/Src/main.c ****         return HAL_ERROR;
 538:Core/Src/main.c ****     }
 539:Core/Src/main.c **** 
 540:Core/Src/main.c ****     // --- 3. ą×ąČąĖą┤ą░ąĮąĖąĄ ą│ąŠčéąŠą▓ąĮąŠčüčéąĖ ą┤ą░ąĮąĮčŗčģ (ąŠą┐čĆąŠčü čäą╗ą░ą│ą░ EDID_RDY)--
 541:Core/Src/main.c ****     // ą”ąĖą║ą╗ąĖčćąĄčüą║ąĖ ą┐čĆąŠą▓ąĄčĆčÅąĄą╝ ą▒ąĖčé 2 (EDID_RDY) ą▓ čĆąĄą│ąĖčüčéčĆąĄ 0x96.
 542:Core/Src/main.c ****     while ((HAL_GetTick() - tickstart) < timeout_ms) {
 543:Core/Src/main.c ****         if (HAL_I2C_Mem_Read(hi2c_dev, ADV7513_MAIN_ADDR, REG_EDID_RDY_FLAG, I2C_MEMADD_SIZE_8BIT, 
 544:Core/Src/main.c ****             return HAL_ERROR;
 545:Core/Src/main.c ****         }
 546:Core/Src/main.c ****         // ąĢčüą╗ąĖ čäą╗ą░ą│ čāčüčéą░ąĮąŠą▓ą╗ąĄąĮ, ą┤ą░ąĮąĮčŗąĄ ą│ąŠčéąŠą▓čŗ
 547:Core/Src/main.c ****         if (reg_data & (1 << 2)) {
 548:Core/Src/main.c ****             break;
 549:Core/Src/main.c ****         }
 550:Core/Src/main.c ****     }
 551:Core/Src/main.c **** 
 552:Core/Src/main.c ****     // ą¤čĆąŠą▓ąĄčĆą║ą░, ąĮąĄ ąĖčüčéąĄą║ą╗ąŠ ą╗ąĖ ą▓čĆąĄą╝čÅ ąŠąČąĖą┤ą░ąĮąĖčÅ
 553:Core/Src/main.c ****     if ((HAL_GetTick() - tickstart) >= timeout_ms) {
 554:Core/Src/main.c ****         Error_Handler();
 555:Core/Src/main.c ****     }
 556:Core/Src/main.c **** 
 557:Core/Src/main.c ****     // --- 4. ą¦čéąĄąĮąĖąĄ ą┤ą░ąĮąĮčŗčģ ąĖąĘ EDID-ą┐ą░ą╝čÅčéąĖ ADV7513 ---
 558:Core/Src/main.c ****     // ąöą░ąĮąĮčŗąĄ čāčüą┐ąĄčłąĮąŠ ąĘą░ą│čĆčāąČąĄąĮčŗ čćąĖą┐ąŠą╝. ąóąĄą┐ąĄčĆčī čćąĖčéą░ąĄą╝ ąĖčģ ą┐
 559:Core/Src/main.c ****     if (HAL_I2C_Mem_Read(hi2c_dev, ADV7513_EDID_MEM_ADDR, 0x00, I2C_MEMADD_SIZE_8BIT, edid_buffer, 
 560:Core/Src/main.c ****         Error_Handler();
 561:Core/Src/main.c ****     }
 562:Core/Src/main.c **** 
 563:Core/Src/main.c **** 
 564:Core/Src/main.c ****     return HAL_OK;
 565:Core/Src/main.c **** }
 566:Core/Src/main.c **** 
 567:Core/Src/main.c **** 
 568:Core/Src/main.c **** 
 569:Core/Src/main.c **** void ADV7513_WriteVerifyReg(uint8_t reg_addr, uint8_t reg_value, const char* reg_name)
 570:Core/Src/main.c **** {
 571:Core/Src/main.c ****     HAL_StatusTypeDef status;
 572:Core/Src/main.c ****     uint8_t write_val = reg_value;
 573:Core/Src/main.c ****     uint8_t read_val = 0;
 574:Core/Src/main.c **** 
 575:Core/Src/main.c ****     // ąŚą░ą┐ąĖčüčī
ARM GAS  /var/folders/l4/6w9kflz11csb_6qsyz46nv3c0000gp/T//cck4x9NQ.s 			page 20


 576:Core/Src/main.c ****     status = HAL_I2C_Mem_Write(&hi2c1, ADV7513_ADDR, reg_addr, I2C_MEMADD_SIZE_8BIT, &write_val, 1,
 577:Core/Src/main.c ****     if(status != HAL_OK) {
 578:Core/Src/main.c ****         HAL_UART_Transmit(&huart1, (uint8_t*)reg_name, strlen(reg_name), HAL_MAX_DELAY);
 579:Core/Src/main.c ****         HAL_UART_Transmit(&huart1, (uint8_t*)" Write ERROR\n", 13, HAL_MAX_DELAY);
 580:Core/Src/main.c ****         Error_Handler();
 581:Core/Src/main.c ****     }
 582:Core/Src/main.c **** 
 583:Core/Src/main.c ****     // ą¦čéąĄąĮąĖąĄ
 584:Core/Src/main.c ****     status = HAL_I2C_Mem_Read(&hi2c1, ADV7513_ADDR, reg_addr, I2C_MEMADD_SIZE_8BIT, &read_val, 1, H
 585:Core/Src/main.c ****     if(status != HAL_OK) {
 586:Core/Src/main.c ****         HAL_UART_Transmit(&huart1, (uint8_t*)reg_name, strlen(reg_name), HAL_MAX_DELAY);
 587:Core/Src/main.c ****         HAL_UART_Transmit(&huart1, (uint8_t*)" Read ERROR\n", 12, HAL_MAX_DELAY);
 588:Core/Src/main.c ****         Error_Handler();
 589:Core/Src/main.c ****     }
 590:Core/Src/main.c **** 
 591:Core/Src/main.c ****     // ą¤čĆąŠą▓ąĄčĆą║ą░
 592:Core/Src/main.c ****     if(read_val != reg_value) {
 593:Core/Src/main.c ****         HAL_UART_Transmit(&huart1, (uint8_t*)reg_name, strlen(reg_name), HAL_MAX_DELAY);
 594:Core/Src/main.c ****         HAL_UART_Transmit(&huart1, (uint8_t*)" Verify FAIL\n", 13, HAL_MAX_DELAY);
 595:Core/Src/main.c ****         Error_Handler();
 596:Core/Src/main.c ****     } else {
 597:Core/Src/main.c ****         HAL_UART_Transmit(&huart1, (uint8_t*)reg_name, strlen(reg_name), HAL_MAX_DELAY);
 598:Core/Src/main.c ****         HAL_UART_Transmit(&huart1, (uint8_t*)" => OK\n", 7, HAL_MAX_DELAY);
 599:Core/Src/main.c ****     }
 600:Core/Src/main.c **** }
 601:Core/Src/main.c **** 
 602:Core/Src/main.c **** 
 603:Core/Src/main.c **** 
 604:Core/Src/main.c **** /**
 605:Core/Src/main.c ****   * @brief  This function is executed in case of error occurrence.
 606:Core/Src/main.c ****   * @retval None
 607:Core/Src/main.c ****   */
 608:Core/Src/main.c **** void Error_Handler(void)
 609:Core/Src/main.c **** {
 476              		.loc 1 609 1 is_stmt 1 view -0
 477              		.cfi_startproc
 478              		@ Volatile: function does not return.
 479              		@ args = 0, pretend = 0, frame = 0
 480              		@ frame_needed = 0, uses_anonymous_args = 0
 481 0000 10B5     		push	{r4, lr}
 482              		.cfi_def_cfa_offset 8
 483              		.cfi_offset 4, -8
 484              		.cfi_offset 14, -4
 610:Core/Src/main.c ****   /* USER CODE BEGIN Error_Handler_Debug */
 611:Core/Src/main.c ****   /* User can add his own implementation to report the HAL error return state */
 612:Core/Src/main.c ****   __disable_irq();
 485              		.loc 1 612 3 view .LVU73
 486              	.LBB5:
 487              	.LBI5:
 488              		.file 2 "Drivers/CMSIS/Include/cmsis_gcc.h"
   1:Drivers/CMSIS/Include/cmsis_gcc.h **** /**************************************************************************//**
   2:Drivers/CMSIS/Include/cmsis_gcc.h ****  * @file     cmsis_gcc.h
   3:Drivers/CMSIS/Include/cmsis_gcc.h ****  * @brief    CMSIS compiler GCC header file
   4:Drivers/CMSIS/Include/cmsis_gcc.h ****  * @version  V5.0.4
   5:Drivers/CMSIS/Include/cmsis_gcc.h ****  * @date     09. April 2018
   6:Drivers/CMSIS/Include/cmsis_gcc.h ****  ******************************************************************************/
   7:Drivers/CMSIS/Include/cmsis_gcc.h **** /*
ARM GAS  /var/folders/l4/6w9kflz11csb_6qsyz46nv3c0000gp/T//cck4x9NQ.s 			page 21


   8:Drivers/CMSIS/Include/cmsis_gcc.h ****  * Copyright (c) 2009-2018 Arm Limited. All rights reserved.
   9:Drivers/CMSIS/Include/cmsis_gcc.h ****  *
  10:Drivers/CMSIS/Include/cmsis_gcc.h ****  * SPDX-License-Identifier: Apache-2.0
  11:Drivers/CMSIS/Include/cmsis_gcc.h ****  *
  12:Drivers/CMSIS/Include/cmsis_gcc.h ****  * Licensed under the Apache License, Version 2.0 (the License); you may
  13:Drivers/CMSIS/Include/cmsis_gcc.h ****  * not use this file except in compliance with the License.
  14:Drivers/CMSIS/Include/cmsis_gcc.h ****  * You may obtain a copy of the License at
  15:Drivers/CMSIS/Include/cmsis_gcc.h ****  *
  16:Drivers/CMSIS/Include/cmsis_gcc.h ****  * www.apache.org/licenses/LICENSE-2.0
  17:Drivers/CMSIS/Include/cmsis_gcc.h ****  *
  18:Drivers/CMSIS/Include/cmsis_gcc.h ****  * Unless required by applicable law or agreed to in writing, software
  19:Drivers/CMSIS/Include/cmsis_gcc.h ****  * distributed under the License is distributed on an AS IS BASIS, WITHOUT
  20:Drivers/CMSIS/Include/cmsis_gcc.h ****  * WARRANTIES OR CONDITIONS OF ANY KIND, either express or implied.
  21:Drivers/CMSIS/Include/cmsis_gcc.h ****  * See the License for the specific language governing permissions and
  22:Drivers/CMSIS/Include/cmsis_gcc.h ****  * limitations under the License.
  23:Drivers/CMSIS/Include/cmsis_gcc.h ****  */
  24:Drivers/CMSIS/Include/cmsis_gcc.h **** 
  25:Drivers/CMSIS/Include/cmsis_gcc.h **** #ifndef __CMSIS_GCC_H
  26:Drivers/CMSIS/Include/cmsis_gcc.h **** #define __CMSIS_GCC_H
  27:Drivers/CMSIS/Include/cmsis_gcc.h **** 
  28:Drivers/CMSIS/Include/cmsis_gcc.h **** /* ignore some GCC warnings */
  29:Drivers/CMSIS/Include/cmsis_gcc.h **** #pragma GCC diagnostic push
  30:Drivers/CMSIS/Include/cmsis_gcc.h **** #pragma GCC diagnostic ignored "-Wsign-conversion"
  31:Drivers/CMSIS/Include/cmsis_gcc.h **** #pragma GCC diagnostic ignored "-Wconversion"
  32:Drivers/CMSIS/Include/cmsis_gcc.h **** #pragma GCC diagnostic ignored "-Wunused-parameter"
  33:Drivers/CMSIS/Include/cmsis_gcc.h **** 
  34:Drivers/CMSIS/Include/cmsis_gcc.h **** /* Fallback for __has_builtin */
  35:Drivers/CMSIS/Include/cmsis_gcc.h **** #ifndef __has_builtin
  36:Drivers/CMSIS/Include/cmsis_gcc.h ****   #define __has_builtin(x) (0)
  37:Drivers/CMSIS/Include/cmsis_gcc.h **** #endif
  38:Drivers/CMSIS/Include/cmsis_gcc.h **** 
  39:Drivers/CMSIS/Include/cmsis_gcc.h **** /* CMSIS compiler specific defines */
  40:Drivers/CMSIS/Include/cmsis_gcc.h **** #ifndef   __ASM
  41:Drivers/CMSIS/Include/cmsis_gcc.h ****   #define __ASM                                  __asm
  42:Drivers/CMSIS/Include/cmsis_gcc.h **** #endif
  43:Drivers/CMSIS/Include/cmsis_gcc.h **** #ifndef   __INLINE
  44:Drivers/CMSIS/Include/cmsis_gcc.h ****   #define __INLINE                               inline
  45:Drivers/CMSIS/Include/cmsis_gcc.h **** #endif
  46:Drivers/CMSIS/Include/cmsis_gcc.h **** #ifndef   __STATIC_INLINE
  47:Drivers/CMSIS/Include/cmsis_gcc.h ****   #define __STATIC_INLINE                        static inline
  48:Drivers/CMSIS/Include/cmsis_gcc.h **** #endif
  49:Drivers/CMSIS/Include/cmsis_gcc.h **** #ifndef   __STATIC_FORCEINLINE                 
  50:Drivers/CMSIS/Include/cmsis_gcc.h ****   #define __STATIC_FORCEINLINE                   __attribute__((always_inline)) static inline
  51:Drivers/CMSIS/Include/cmsis_gcc.h **** #endif                                           
  52:Drivers/CMSIS/Include/cmsis_gcc.h **** #ifndef   __NO_RETURN
  53:Drivers/CMSIS/Include/cmsis_gcc.h ****   #define __NO_RETURN                            __attribute__((__noreturn__))
  54:Drivers/CMSIS/Include/cmsis_gcc.h **** #endif
  55:Drivers/CMSIS/Include/cmsis_gcc.h **** #ifndef   __USED
  56:Drivers/CMSIS/Include/cmsis_gcc.h ****   #define __USED                                 __attribute__((used))
  57:Drivers/CMSIS/Include/cmsis_gcc.h **** #endif
  58:Drivers/CMSIS/Include/cmsis_gcc.h **** #ifndef   __WEAK
  59:Drivers/CMSIS/Include/cmsis_gcc.h ****   #define __WEAK                                 __attribute__((weak))
  60:Drivers/CMSIS/Include/cmsis_gcc.h **** #endif
  61:Drivers/CMSIS/Include/cmsis_gcc.h **** #ifndef   __PACKED
  62:Drivers/CMSIS/Include/cmsis_gcc.h ****   #define __PACKED                               __attribute__((packed, aligned(1)))
  63:Drivers/CMSIS/Include/cmsis_gcc.h **** #endif
  64:Drivers/CMSIS/Include/cmsis_gcc.h **** #ifndef   __PACKED_STRUCT
ARM GAS  /var/folders/l4/6w9kflz11csb_6qsyz46nv3c0000gp/T//cck4x9NQ.s 			page 22


  65:Drivers/CMSIS/Include/cmsis_gcc.h ****   #define __PACKED_STRUCT                        struct __attribute__((packed, aligned(1)))
  66:Drivers/CMSIS/Include/cmsis_gcc.h **** #endif
  67:Drivers/CMSIS/Include/cmsis_gcc.h **** #ifndef   __PACKED_UNION
  68:Drivers/CMSIS/Include/cmsis_gcc.h ****   #define __PACKED_UNION                         union __attribute__((packed, aligned(1)))
  69:Drivers/CMSIS/Include/cmsis_gcc.h **** #endif
  70:Drivers/CMSIS/Include/cmsis_gcc.h **** #ifndef   __UNALIGNED_UINT32        /* deprecated */
  71:Drivers/CMSIS/Include/cmsis_gcc.h ****   #pragma GCC diagnostic push
  72:Drivers/CMSIS/Include/cmsis_gcc.h ****   #pragma GCC diagnostic ignored "-Wpacked"
  73:Drivers/CMSIS/Include/cmsis_gcc.h ****   #pragma GCC diagnostic ignored "-Wattributes"
  74:Drivers/CMSIS/Include/cmsis_gcc.h ****   struct __attribute__((packed)) T_UINT32 { uint32_t v; };
  75:Drivers/CMSIS/Include/cmsis_gcc.h ****   #pragma GCC diagnostic pop
  76:Drivers/CMSIS/Include/cmsis_gcc.h ****   #define __UNALIGNED_UINT32(x)                  (((struct T_UINT32 *)(x))->v)
  77:Drivers/CMSIS/Include/cmsis_gcc.h **** #endif
  78:Drivers/CMSIS/Include/cmsis_gcc.h **** #ifndef   __UNALIGNED_UINT16_WRITE
  79:Drivers/CMSIS/Include/cmsis_gcc.h ****   #pragma GCC diagnostic push
  80:Drivers/CMSIS/Include/cmsis_gcc.h ****   #pragma GCC diagnostic ignored "-Wpacked"
  81:Drivers/CMSIS/Include/cmsis_gcc.h ****   #pragma GCC diagnostic ignored "-Wattributes"
  82:Drivers/CMSIS/Include/cmsis_gcc.h ****   __PACKED_STRUCT T_UINT16_WRITE { uint16_t v; };
  83:Drivers/CMSIS/Include/cmsis_gcc.h ****   #pragma GCC diagnostic pop
  84:Drivers/CMSIS/Include/cmsis_gcc.h ****   #define __UNALIGNED_UINT16_WRITE(addr, val)    (void)((((struct T_UINT16_WRITE *)(void *)(addr))-
  85:Drivers/CMSIS/Include/cmsis_gcc.h **** #endif
  86:Drivers/CMSIS/Include/cmsis_gcc.h **** #ifndef   __UNALIGNED_UINT16_READ
  87:Drivers/CMSIS/Include/cmsis_gcc.h ****   #pragma GCC diagnostic push
  88:Drivers/CMSIS/Include/cmsis_gcc.h ****   #pragma GCC diagnostic ignored "-Wpacked"
  89:Drivers/CMSIS/Include/cmsis_gcc.h ****   #pragma GCC diagnostic ignored "-Wattributes"
  90:Drivers/CMSIS/Include/cmsis_gcc.h ****   __PACKED_STRUCT T_UINT16_READ { uint16_t v; };
  91:Drivers/CMSIS/Include/cmsis_gcc.h ****   #pragma GCC diagnostic pop
  92:Drivers/CMSIS/Include/cmsis_gcc.h ****   #define __UNALIGNED_UINT16_READ(addr)          (((const struct T_UINT16_READ *)(const void *)(add
  93:Drivers/CMSIS/Include/cmsis_gcc.h **** #endif
  94:Drivers/CMSIS/Include/cmsis_gcc.h **** #ifndef   __UNALIGNED_UINT32_WRITE
  95:Drivers/CMSIS/Include/cmsis_gcc.h ****   #pragma GCC diagnostic push
  96:Drivers/CMSIS/Include/cmsis_gcc.h ****   #pragma GCC diagnostic ignored "-Wpacked"
  97:Drivers/CMSIS/Include/cmsis_gcc.h ****   #pragma GCC diagnostic ignored "-Wattributes"
  98:Drivers/CMSIS/Include/cmsis_gcc.h ****   __PACKED_STRUCT T_UINT32_WRITE { uint32_t v; };
  99:Drivers/CMSIS/Include/cmsis_gcc.h ****   #pragma GCC diagnostic pop
 100:Drivers/CMSIS/Include/cmsis_gcc.h ****   #define __UNALIGNED_UINT32_WRITE(addr, val)    (void)((((struct T_UINT32_WRITE *)(void *)(addr))-
 101:Drivers/CMSIS/Include/cmsis_gcc.h **** #endif
 102:Drivers/CMSIS/Include/cmsis_gcc.h **** #ifndef   __UNALIGNED_UINT32_READ
 103:Drivers/CMSIS/Include/cmsis_gcc.h ****   #pragma GCC diagnostic push
 104:Drivers/CMSIS/Include/cmsis_gcc.h ****   #pragma GCC diagnostic ignored "-Wpacked"
 105:Drivers/CMSIS/Include/cmsis_gcc.h ****   #pragma GCC diagnostic ignored "-Wattributes"
 106:Drivers/CMSIS/Include/cmsis_gcc.h ****   __PACKED_STRUCT T_UINT32_READ { uint32_t v; };
 107:Drivers/CMSIS/Include/cmsis_gcc.h ****   #pragma GCC diagnostic pop
 108:Drivers/CMSIS/Include/cmsis_gcc.h ****   #define __UNALIGNED_UINT32_READ(addr)          (((const struct T_UINT32_READ *)(const void *)(add
 109:Drivers/CMSIS/Include/cmsis_gcc.h **** #endif
 110:Drivers/CMSIS/Include/cmsis_gcc.h **** #ifndef   __ALIGNED
 111:Drivers/CMSIS/Include/cmsis_gcc.h ****   #define __ALIGNED(x)                           __attribute__((aligned(x)))
 112:Drivers/CMSIS/Include/cmsis_gcc.h **** #endif
 113:Drivers/CMSIS/Include/cmsis_gcc.h **** #ifndef   __RESTRICT
 114:Drivers/CMSIS/Include/cmsis_gcc.h ****   #define __RESTRICT                             __restrict
 115:Drivers/CMSIS/Include/cmsis_gcc.h **** #endif
 116:Drivers/CMSIS/Include/cmsis_gcc.h **** 
 117:Drivers/CMSIS/Include/cmsis_gcc.h **** 
 118:Drivers/CMSIS/Include/cmsis_gcc.h **** /* ###########################  Core Function Access  ########################### */
 119:Drivers/CMSIS/Include/cmsis_gcc.h **** /** \ingroup  CMSIS_Core_FunctionInterface
 120:Drivers/CMSIS/Include/cmsis_gcc.h ****     \defgroup CMSIS_Core_RegAccFunctions CMSIS Core Register Access Functions
 121:Drivers/CMSIS/Include/cmsis_gcc.h ****   @{
ARM GAS  /var/folders/l4/6w9kflz11csb_6qsyz46nv3c0000gp/T//cck4x9NQ.s 			page 23


 122:Drivers/CMSIS/Include/cmsis_gcc.h ****  */
 123:Drivers/CMSIS/Include/cmsis_gcc.h **** 
 124:Drivers/CMSIS/Include/cmsis_gcc.h **** /**
 125:Drivers/CMSIS/Include/cmsis_gcc.h ****   \brief   Enable IRQ Interrupts
 126:Drivers/CMSIS/Include/cmsis_gcc.h ****   \details Enables IRQ interrupts by clearing the I-bit in the CPSR.
 127:Drivers/CMSIS/Include/cmsis_gcc.h ****            Can only be executed in Privileged modes.
 128:Drivers/CMSIS/Include/cmsis_gcc.h ****  */
 129:Drivers/CMSIS/Include/cmsis_gcc.h **** __STATIC_FORCEINLINE void __enable_irq(void)
 130:Drivers/CMSIS/Include/cmsis_gcc.h **** {
 131:Drivers/CMSIS/Include/cmsis_gcc.h ****   __ASM volatile ("cpsie i" : : : "memory");
 132:Drivers/CMSIS/Include/cmsis_gcc.h **** }
 133:Drivers/CMSIS/Include/cmsis_gcc.h **** 
 134:Drivers/CMSIS/Include/cmsis_gcc.h **** 
 135:Drivers/CMSIS/Include/cmsis_gcc.h **** /**
 136:Drivers/CMSIS/Include/cmsis_gcc.h ****   \brief   Disable IRQ Interrupts
 137:Drivers/CMSIS/Include/cmsis_gcc.h ****   \details Disables IRQ interrupts by setting the I-bit in the CPSR.
 138:Drivers/CMSIS/Include/cmsis_gcc.h ****            Can only be executed in Privileged modes.
 139:Drivers/CMSIS/Include/cmsis_gcc.h ****  */
 140:Drivers/CMSIS/Include/cmsis_gcc.h **** __STATIC_FORCEINLINE void __disable_irq(void)
 489              		.loc 2 140 27 view .LVU74
 490              	.LBB6:
 141:Drivers/CMSIS/Include/cmsis_gcc.h **** {
 142:Drivers/CMSIS/Include/cmsis_gcc.h ****   __ASM volatile ("cpsid i" : : : "memory");
 491              		.loc 2 142 3 view .LVU75
 492              		.syntax divided
 493              	@ 142 "Drivers/CMSIS/Include/cmsis_gcc.h" 1
 494 0002 72B6     		cpsid i
 495              	@ 0 "" 2
 496              		.thumb
 497              		.syntax unified
 498              	.LBE6:
 499              	.LBE5:
 613:Core/Src/main.c ****   HAL_GPIO_WritePin(GPIOA, GPIO_PIN_8, GPIO_PIN_RESET);
 500              		.loc 1 613 3 view .LVU76
 501 0004 8021     		movs	r1, #128
 502 0006 9020     		movs	r0, #144
 503 0008 0022     		movs	r2, #0
 504 000a 4900     		lsls	r1, r1, #1
 505 000c C005     		lsls	r0, r0, #23
 506 000e FFF7FEFF 		bl	HAL_GPIO_WritePin
 507              	.LVL36:
 508              	.L10:
 614:Core/Src/main.c ****   while (1)
 509              		.loc 1 614 3 view .LVU77
 615:Core/Src/main.c ****   {
 616:Core/Src/main.c ****     // HAL_GPIO_TogglePin(GPIOA, GPIO_PIN_8);
 617:Core/Src/main.c ****     // HAL_Delay(250);
 618:Core/Src/main.c ****   }
 510              		.loc 1 618 3 view .LVU78
 614:Core/Src/main.c ****   while (1)
 511              		.loc 1 614 9 view .LVU79
 512 0012 FEE7     		b	.L10
 513              		.cfi_endproc
 514              	.LFE54:
 516              		.section	.text.MX_I2C1_Init,"ax",%progbits
 517              		.align	1
 518              		.syntax unified
ARM GAS  /var/folders/l4/6w9kflz11csb_6qsyz46nv3c0000gp/T//cck4x9NQ.s 			page 24


 519              		.code	16
 520              		.thumb_func
 522              	MX_I2C1_Init:
 523              	.LFB45:
 264:Core/Src/main.c **** 
 524              		.loc 1 264 1 view -0
 525              		.cfi_startproc
 526              		@ args = 0, pretend = 0, frame = 0
 527              		@ frame_needed = 0, uses_anonymous_args = 0
 528 0000 10B5     		push	{r4, lr}
 529              		.cfi_def_cfa_offset 8
 530              		.cfi_offset 4, -8
 531              		.cfi_offset 14, -4
 273:Core/Src/main.c ****   hi2c1.Init.Timing = 0x00201D2B;
 532              		.loc 1 273 3 view .LVU81
 273:Core/Src/main.c ****   hi2c1.Init.Timing = 0x00201D2B;
 533              		.loc 1 273 18 is_stmt 0 view .LVU82
 534 0002 1248     		ldr	r0, .L18
 535 0004 124B     		ldr	r3, .L18+4
 536 0006 0360     		str	r3, [r0]
 274:Core/Src/main.c ****   hi2c1.Init.OwnAddress1 = 0;
 537              		.loc 1 274 3 is_stmt 1 view .LVU83
 274:Core/Src/main.c ****   hi2c1.Init.OwnAddress1 = 0;
 538              		.loc 1 274 21 is_stmt 0 view .LVU84
 539 0008 124B     		ldr	r3, .L18+8
 540 000a 4360     		str	r3, [r0, #4]
 275:Core/Src/main.c ****   hi2c1.Init.AddressingMode = I2C_ADDRESSINGMODE_7BIT;
 541              		.loc 1 275 3 is_stmt 1 view .LVU85
 275:Core/Src/main.c ****   hi2c1.Init.AddressingMode = I2C_ADDRESSINGMODE_7BIT;
 542              		.loc 1 275 26 is_stmt 0 view .LVU86
 543 000c 0023     		movs	r3, #0
 544 000e 8360     		str	r3, [r0, #8]
 276:Core/Src/main.c ****   hi2c1.Init.DualAddressMode = I2C_DUALADDRESS_DISABLE;
 545              		.loc 1 276 3 is_stmt 1 view .LVU87
 276:Core/Src/main.c ****   hi2c1.Init.DualAddressMode = I2C_DUALADDRESS_DISABLE;
 546              		.loc 1 276 29 is_stmt 0 view .LVU88
 547 0010 0122     		movs	r2, #1
 548 0012 C260     		str	r2, [r0, #12]
 277:Core/Src/main.c ****   hi2c1.Init.OwnAddress2 = 0;
 549              		.loc 1 277 3 is_stmt 1 view .LVU89
 277:Core/Src/main.c ****   hi2c1.Init.OwnAddress2 = 0;
 550              		.loc 1 277 30 is_stmt 0 view .LVU90
 551 0014 0361     		str	r3, [r0, #16]
 278:Core/Src/main.c ****   hi2c1.Init.OwnAddress2Masks = I2C_OA2_NOMASK;
 552              		.loc 1 278 3 is_stmt 1 view .LVU91
 278:Core/Src/main.c ****   hi2c1.Init.OwnAddress2Masks = I2C_OA2_NOMASK;
 553              		.loc 1 278 26 is_stmt 0 view .LVU92
 554 0016 4361     		str	r3, [r0, #20]
 279:Core/Src/main.c ****   hi2c1.Init.GeneralCallMode = I2C_GENERALCALL_DISABLE;
 555              		.loc 1 279 3 is_stmt 1 view .LVU93
 279:Core/Src/main.c ****   hi2c1.Init.GeneralCallMode = I2C_GENERALCALL_DISABLE;
 556              		.loc 1 279 31 is_stmt 0 view .LVU94
 557 0018 8361     		str	r3, [r0, #24]
 280:Core/Src/main.c ****   hi2c1.Init.NoStretchMode = I2C_NOSTRETCH_DISABLE;
 558              		.loc 1 280 3 is_stmt 1 view .LVU95
 280:Core/Src/main.c ****   hi2c1.Init.NoStretchMode = I2C_NOSTRETCH_DISABLE;
 559              		.loc 1 280 30 is_stmt 0 view .LVU96
ARM GAS  /var/folders/l4/6w9kflz11csb_6qsyz46nv3c0000gp/T//cck4x9NQ.s 			page 25


 560 001a C361     		str	r3, [r0, #28]
 281:Core/Src/main.c ****   if (HAL_I2C_Init(&hi2c1) != HAL_OK)
 561              		.loc 1 281 3 is_stmt 1 view .LVU97
 281:Core/Src/main.c ****   if (HAL_I2C_Init(&hi2c1) != HAL_OK)
 562              		.loc 1 281 28 is_stmt 0 view .LVU98
 563 001c 0362     		str	r3, [r0, #32]
 282:Core/Src/main.c ****   {
 564              		.loc 1 282 3 is_stmt 1 view .LVU99
 282:Core/Src/main.c ****   {
 565              		.loc 1 282 7 is_stmt 0 view .LVU100
 566 001e FFF7FEFF 		bl	HAL_I2C_Init
 567              	.LVL37:
 282:Core/Src/main.c ****   {
 568              		.loc 1 282 6 discriminator 1 view .LVU101
 569 0022 0028     		cmp	r0, #0
 570 0024 0CD1     		bne	.L15
 289:Core/Src/main.c ****   {
 571              		.loc 1 289 3 is_stmt 1 view .LVU102
 289:Core/Src/main.c ****   {
 572              		.loc 1 289 7 is_stmt 0 view .LVU103
 573 0026 0948     		ldr	r0, .L18
 574 0028 0021     		movs	r1, #0
 575 002a FFF7FEFF 		bl	HAL_I2CEx_ConfigAnalogFilter
 576              	.LVL38:
 289:Core/Src/main.c ****   {
 577              		.loc 1 289 6 discriminator 1 view .LVU104
 578 002e 0028     		cmp	r0, #0
 579 0030 08D1     		bne	.L16
 296:Core/Src/main.c ****   {
 580              		.loc 1 296 3 is_stmt 1 view .LVU105
 296:Core/Src/main.c ****   {
 581              		.loc 1 296 7 is_stmt 0 view .LVU106
 582 0032 0648     		ldr	r0, .L18
 583 0034 0021     		movs	r1, #0
 584 0036 FFF7FEFF 		bl	HAL_I2CEx_ConfigDigitalFilter
 585              	.LVL39:
 296:Core/Src/main.c ****   {
 586              		.loc 1 296 6 discriminator 1 view .LVU107
 587 003a 0028     		cmp	r0, #0
 588 003c 04D1     		bne	.L17
 304:Core/Src/main.c **** 
 589              		.loc 1 304 1 view .LVU108
 590              		@ sp needed
 591 003e 10BD     		pop	{r4, pc}
 592              	.L15:
 284:Core/Src/main.c ****   }
 593              		.loc 1 284 5 is_stmt 1 view .LVU109
 594 0040 FFF7FEFF 		bl	Error_Handler
 595              	.LVL40:
 596              	.L16:
 291:Core/Src/main.c ****   }
 597              		.loc 1 291 5 view .LVU110
 598 0044 FFF7FEFF 		bl	Error_Handler
 599              	.LVL41:
 600              	.L17:
 298:Core/Src/main.c ****   }
 601              		.loc 1 298 5 view .LVU111
ARM GAS  /var/folders/l4/6w9kflz11csb_6qsyz46nv3c0000gp/T//cck4x9NQ.s 			page 26


 602 0048 FFF7FEFF 		bl	Error_Handler
 603              	.LVL42:
 604              	.L19:
 605              		.align	2
 606              	.L18:
 607 004c 00000000 		.word	hi2c1
 608 0050 00540040 		.word	1073763328
 609 0054 2B1D2000 		.word	2104619
 610              		.cfi_endproc
 611              	.LFE45:
 613              		.section	.text.MX_USART1_UART_Init,"ax",%progbits
 614              		.align	1
 615              		.syntax unified
 616              		.code	16
 617              		.thumb_func
 619              	MX_USART1_UART_Init:
 620              	.LFB46:
 312:Core/Src/main.c **** 
 621              		.loc 1 312 1 view -0
 622              		.cfi_startproc
 623              		@ args = 0, pretend = 0, frame = 0
 624              		@ frame_needed = 0, uses_anonymous_args = 0
 625 0000 10B5     		push	{r4, lr}
 626              		.cfi_def_cfa_offset 8
 627              		.cfi_offset 4, -8
 628              		.cfi_offset 14, -4
 321:Core/Src/main.c ****   huart1.Init.BaudRate = 115200;
 629              		.loc 1 321 3 view .LVU113
 321:Core/Src/main.c ****   huart1.Init.BaudRate = 115200;
 630              		.loc 1 321 19 is_stmt 0 view .LVU114
 631 0002 0B48     		ldr	r0, .L23
 632 0004 0B4B     		ldr	r3, .L23+4
 633 0006 0360     		str	r3, [r0]
 322:Core/Src/main.c ****   huart1.Init.WordLength = UART_WORDLENGTH_8B;
 634              		.loc 1 322 3 is_stmt 1 view .LVU115
 322:Core/Src/main.c ****   huart1.Init.WordLength = UART_WORDLENGTH_8B;
 635              		.loc 1 322 24 is_stmt 0 view .LVU116
 636 0008 E123     		movs	r3, #225
 637 000a 5B02     		lsls	r3, r3, #9
 638 000c 4360     		str	r3, [r0, #4]
 323:Core/Src/main.c ****   huart1.Init.StopBits = UART_STOPBITS_1;
 639              		.loc 1 323 3 is_stmt 1 view .LVU117
 323:Core/Src/main.c ****   huart1.Init.StopBits = UART_STOPBITS_1;
 640              		.loc 1 323 26 is_stmt 0 view .LVU118
 641 000e 0023     		movs	r3, #0
 642 0010 8360     		str	r3, [r0, #8]
 324:Core/Src/main.c ****   huart1.Init.Parity = UART_PARITY_NONE;
 643              		.loc 1 324 3 is_stmt 1 view .LVU119
 324:Core/Src/main.c ****   huart1.Init.Parity = UART_PARITY_NONE;
 644              		.loc 1 324 24 is_stmt 0 view .LVU120
 645 0012 C360     		str	r3, [r0, #12]
 325:Core/Src/main.c ****   huart1.Init.Mode = UART_MODE_TX_RX;
 646              		.loc 1 325 3 is_stmt 1 view .LVU121
 325:Core/Src/main.c ****   huart1.Init.Mode = UART_MODE_TX_RX;
 647              		.loc 1 325 22 is_stmt 0 view .LVU122
 648 0014 0361     		str	r3, [r0, #16]
 326:Core/Src/main.c ****   huart1.Init.HwFlowCtl = UART_HWCONTROL_NONE;
ARM GAS  /var/folders/l4/6w9kflz11csb_6qsyz46nv3c0000gp/T//cck4x9NQ.s 			page 27


 649              		.loc 1 326 3 is_stmt 1 view .LVU123
 326:Core/Src/main.c ****   huart1.Init.HwFlowCtl = UART_HWCONTROL_NONE;
 650              		.loc 1 326 20 is_stmt 0 view .LVU124
 651 0016 0C22     		movs	r2, #12
 652 0018 4261     		str	r2, [r0, #20]
 327:Core/Src/main.c ****   huart1.Init.OverSampling = UART_OVERSAMPLING_16;
 653              		.loc 1 327 3 is_stmt 1 view .LVU125
 327:Core/Src/main.c ****   huart1.Init.OverSampling = UART_OVERSAMPLING_16;
 654              		.loc 1 327 25 is_stmt 0 view .LVU126
 655 001a 8361     		str	r3, [r0, #24]
 328:Core/Src/main.c ****   huart1.Init.OneBitSampling = UART_ONE_BIT_SAMPLE_DISABLE;
 656              		.loc 1 328 3 is_stmt 1 view .LVU127
 328:Core/Src/main.c ****   huart1.Init.OneBitSampling = UART_ONE_BIT_SAMPLE_DISABLE;
 657              		.loc 1 328 28 is_stmt 0 view .LVU128
 658 001c C361     		str	r3, [r0, #28]
 329:Core/Src/main.c ****   huart1.AdvancedInit.AdvFeatureInit = UART_ADVFEATURE_NO_INIT;
 659              		.loc 1 329 3 is_stmt 1 view .LVU129
 329:Core/Src/main.c ****   huart1.AdvancedInit.AdvFeatureInit = UART_ADVFEATURE_NO_INIT;
 660              		.loc 1 329 30 is_stmt 0 view .LVU130
 661 001e 0362     		str	r3, [r0, #32]
 330:Core/Src/main.c ****   if (HAL_UART_Init(&huart1) != HAL_OK)
 662              		.loc 1 330 3 is_stmt 1 view .LVU131
 330:Core/Src/main.c ****   if (HAL_UART_Init(&huart1) != HAL_OK)
 663              		.loc 1 330 38 is_stmt 0 view .LVU132
 664 0020 4362     		str	r3, [r0, #36]
 331:Core/Src/main.c ****   {
 665              		.loc 1 331 3 is_stmt 1 view .LVU133
 331:Core/Src/main.c ****   {
 666              		.loc 1 331 7 is_stmt 0 view .LVU134
 667 0022 FFF7FEFF 		bl	HAL_UART_Init
 668              	.LVL43:
 331:Core/Src/main.c ****   {
 669              		.loc 1 331 6 discriminator 1 view .LVU135
 670 0026 0028     		cmp	r0, #0
 671 0028 00D1     		bne	.L22
 339:Core/Src/main.c **** 
 672              		.loc 1 339 1 view .LVU136
 673              		@ sp needed
 674 002a 10BD     		pop	{r4, pc}
 675              	.L22:
 333:Core/Src/main.c ****   }
 676              		.loc 1 333 5 is_stmt 1 view .LVU137
 677 002c FFF7FEFF 		bl	Error_Handler
 678              	.LVL44:
 679              	.L24:
 680              		.align	2
 681              	.L23:
 682 0030 00000000 		.word	huart1
 683 0034 00380140 		.word	1073821696
 684              		.cfi_endproc
 685              	.LFE46:
 687              		.section	.text.SystemClock_Config,"ax",%progbits
 688              		.align	1
 689              		.global	SystemClock_Config
 690              		.syntax unified
 691              		.code	16
 692              		.thumb_func
ARM GAS  /var/folders/l4/6w9kflz11csb_6qsyz46nv3c0000gp/T//cck4x9NQ.s 			page 28


 694              	SystemClock_Config:
 695              	.LFB44:
 220:Core/Src/main.c ****   RCC_OscInitTypeDef RCC_OscInitStruct = {0};
 696              		.loc 1 220 1 view -0
 697              		.cfi_startproc
 698              		@ args = 0, pretend = 0, frame = 80
 699              		@ frame_needed = 0, uses_anonymous_args = 0
 700 0000 10B5     		push	{r4, lr}
 701              		.cfi_def_cfa_offset 8
 702              		.cfi_offset 4, -8
 703              		.cfi_offset 14, -4
 704 0002 94B0     		sub	sp, sp, #80
 705              		.cfi_def_cfa_offset 88
 221:Core/Src/main.c ****   RCC_ClkInitTypeDef RCC_ClkInitStruct = {0};
 706              		.loc 1 221 3 view .LVU139
 221:Core/Src/main.c ****   RCC_ClkInitTypeDef RCC_ClkInitStruct = {0};
 707              		.loc 1 221 22 is_stmt 0 view .LVU140
 708 0004 08AC     		add	r4, sp, #32
 709 0006 3022     		movs	r2, #48
 710 0008 0021     		movs	r1, #0
 711 000a 2000     		movs	r0, r4
 712 000c FFF7FEFF 		bl	memset
 713              	.LVL45:
 222:Core/Src/main.c ****   RCC_PeriphCLKInitTypeDef PeriphClkInit = {0};
 714              		.loc 1 222 3 is_stmt 1 view .LVU141
 222:Core/Src/main.c ****   RCC_PeriphCLKInitTypeDef PeriphClkInit = {0};
 715              		.loc 1 222 22 is_stmt 0 view .LVU142
 716 0010 1022     		movs	r2, #16
 717 0012 0021     		movs	r1, #0
 718 0014 04A8     		add	r0, sp, #16
 719 0016 FFF7FEFF 		bl	memset
 720              	.LVL46:
 223:Core/Src/main.c **** 
 721              		.loc 1 223 3 is_stmt 1 view .LVU143
 223:Core/Src/main.c **** 
 722              		.loc 1 223 28 is_stmt 0 view .LVU144
 723 001a 1022     		movs	r2, #16
 724 001c 0021     		movs	r1, #0
 725 001e 6846     		mov	r0, sp
 726 0020 FFF7FEFF 		bl	memset
 727              	.LVL47:
 228:Core/Src/main.c ****   RCC_OscInitStruct.HSIState = RCC_HSI_ON;
 728              		.loc 1 228 3 is_stmt 1 view .LVU145
 228:Core/Src/main.c ****   RCC_OscInitStruct.HSIState = RCC_HSI_ON;
 729              		.loc 1 228 36 is_stmt 0 view .LVU146
 730 0024 0223     		movs	r3, #2
 731 0026 0893     		str	r3, [sp, #32]
 229:Core/Src/main.c ****   RCC_OscInitStruct.HSICalibrationValue = RCC_HSICALIBRATION_DEFAULT;
 732              		.loc 1 229 3 is_stmt 1 view .LVU147
 229:Core/Src/main.c ****   RCC_OscInitStruct.HSICalibrationValue = RCC_HSICALIBRATION_DEFAULT;
 733              		.loc 1 229 30 is_stmt 0 view .LVU148
 734 0028 013B     		subs	r3, r3, #1
 735 002a 0B93     		str	r3, [sp, #44]
 230:Core/Src/main.c ****   RCC_OscInitStruct.PLL.PLLState = RCC_PLL_NONE;
 736              		.loc 1 230 3 is_stmt 1 view .LVU149
 230:Core/Src/main.c ****   RCC_OscInitStruct.PLL.PLLState = RCC_PLL_NONE;
 737              		.loc 1 230 41 is_stmt 0 view .LVU150
ARM GAS  /var/folders/l4/6w9kflz11csb_6qsyz46nv3c0000gp/T//cck4x9NQ.s 			page 29


 738 002c 0F33     		adds	r3, r3, #15
 739 002e 0C93     		str	r3, [sp, #48]
 231:Core/Src/main.c ****   if (HAL_RCC_OscConfig(&RCC_OscInitStruct) != HAL_OK)
 740              		.loc 1 231 3 is_stmt 1 view .LVU151
 232:Core/Src/main.c ****   {
 741              		.loc 1 232 3 view .LVU152
 232:Core/Src/main.c ****   {
 742              		.loc 1 232 7 is_stmt 0 view .LVU153
 743 0030 2000     		movs	r0, r4
 744 0032 FFF7FEFF 		bl	HAL_RCC_OscConfig
 745              	.LVL48:
 232:Core/Src/main.c ****   {
 746              		.loc 1 232 6 discriminator 1 view .LVU154
 747 0036 0028     		cmp	r0, #0
 748 0038 17D1     		bne	.L29
 239:Core/Src/main.c ****                               |RCC_CLOCKTYPE_PCLK1;
 749              		.loc 1 239 3 is_stmt 1 view .LVU155
 239:Core/Src/main.c ****                               |RCC_CLOCKTYPE_PCLK1;
 750              		.loc 1 239 31 is_stmt 0 view .LVU156
 751 003a 04A8     		add	r0, sp, #16
 752 003c 0723     		movs	r3, #7
 753 003e 0493     		str	r3, [sp, #16]
 241:Core/Src/main.c ****   RCC_ClkInitStruct.AHBCLKDivider = RCC_SYSCLK_DIV1;
 754              		.loc 1 241 3 is_stmt 1 view .LVU157
 241:Core/Src/main.c ****   RCC_ClkInitStruct.AHBCLKDivider = RCC_SYSCLK_DIV1;
 755              		.loc 1 241 34 is_stmt 0 view .LVU158
 756 0040 0023     		movs	r3, #0
 757 0042 4360     		str	r3, [r0, #4]
 242:Core/Src/main.c ****   RCC_ClkInitStruct.APB1CLKDivider = RCC_HCLK_DIV1;
 758              		.loc 1 242 3 is_stmt 1 view .LVU159
 242:Core/Src/main.c ****   RCC_ClkInitStruct.APB1CLKDivider = RCC_HCLK_DIV1;
 759              		.loc 1 242 35 is_stmt 0 view .LVU160
 760 0044 8360     		str	r3, [r0, #8]
 243:Core/Src/main.c **** 
 761              		.loc 1 243 3 is_stmt 1 view .LVU161
 243:Core/Src/main.c **** 
 762              		.loc 1 243 36 is_stmt 0 view .LVU162
 763 0046 C360     		str	r3, [r0, #12]
 245:Core/Src/main.c ****   {
 764              		.loc 1 245 3 is_stmt 1 view .LVU163
 245:Core/Src/main.c ****   {
 765              		.loc 1 245 7 is_stmt 0 view .LVU164
 766 0048 0021     		movs	r1, #0
 767 004a FFF7FEFF 		bl	HAL_RCC_ClockConfig
 768              	.LVL49:
 245:Core/Src/main.c ****   {
 769              		.loc 1 245 6 discriminator 1 view .LVU165
 770 004e 0028     		cmp	r0, #0
 771 0050 0DD1     		bne	.L30
 249:Core/Src/main.c ****   PeriphClkInit.Usart1ClockSelection = RCC_USART1CLKSOURCE_PCLK1;
 772              		.loc 1 249 3 is_stmt 1 view .LVU166
 249:Core/Src/main.c ****   PeriphClkInit.Usart1ClockSelection = RCC_USART1CLKSOURCE_PCLK1;
 773              		.loc 1 249 38 is_stmt 0 view .LVU167
 774 0052 6846     		mov	r0, sp
 775 0054 2123     		movs	r3, #33
 776 0056 0093     		str	r3, [sp]
 250:Core/Src/main.c ****   PeriphClkInit.I2c1ClockSelection = RCC_I2C1CLKSOURCE_HSI;
ARM GAS  /var/folders/l4/6w9kflz11csb_6qsyz46nv3c0000gp/T//cck4x9NQ.s 			page 30


 777              		.loc 1 250 3 is_stmt 1 view .LVU168
 250:Core/Src/main.c ****   PeriphClkInit.I2c1ClockSelection = RCC_I2C1CLKSOURCE_HSI;
 778              		.loc 1 250 38 is_stmt 0 view .LVU169
 779 0058 0023     		movs	r3, #0
 780 005a 0293     		str	r3, [sp, #8]
 251:Core/Src/main.c ****   if (HAL_RCCEx_PeriphCLKConfig(&PeriphClkInit) != HAL_OK)
 781              		.loc 1 251 3 is_stmt 1 view .LVU170
 251:Core/Src/main.c ****   if (HAL_RCCEx_PeriphCLKConfig(&PeriphClkInit) != HAL_OK)
 782              		.loc 1 251 36 is_stmt 0 view .LVU171
 783 005c 0393     		str	r3, [sp, #12]
 252:Core/Src/main.c ****   {
 784              		.loc 1 252 3 is_stmt 1 view .LVU172
 252:Core/Src/main.c ****   {
 785              		.loc 1 252 7 is_stmt 0 view .LVU173
 786 005e FFF7FEFF 		bl	HAL_RCCEx_PeriphCLKConfig
 787              	.LVL50:
 252:Core/Src/main.c ****   {
 788              		.loc 1 252 6 discriminator 1 view .LVU174
 789 0062 0028     		cmp	r0, #0
 790 0064 05D1     		bne	.L31
 256:Core/Src/main.c **** 
 791              		.loc 1 256 1 view .LVU175
 792 0066 14B0     		add	sp, sp, #80
 793              		@ sp needed
 794 0068 10BD     		pop	{r4, pc}
 795              	.L29:
 234:Core/Src/main.c ****   }
 796              		.loc 1 234 5 is_stmt 1 view .LVU176
 797 006a FFF7FEFF 		bl	Error_Handler
 798              	.LVL51:
 799              	.L30:
 247:Core/Src/main.c ****   }
 800              		.loc 1 247 5 view .LVU177
 801 006e FFF7FEFF 		bl	Error_Handler
 802              	.LVL52:
 803              	.L31:
 254:Core/Src/main.c ****   }
 804              		.loc 1 254 5 view .LVU178
 805 0072 FFF7FEFF 		bl	Error_Handler
 806              	.LVL53:
 807              		.cfi_endproc
 808              	.LFE44:
 810              		.section	.text.ADV7513_ReadEDIDSegment,"ax",%progbits
 811              		.align	1
 812              		.global	ADV7513_ReadEDIDSegment
 813              		.syntax unified
 814              		.code	16
 815              		.thumb_func
 817              	ADV7513_ReadEDIDSegment:
 818              	.LVL54:
 819              	.LFB52:
 522:Core/Src/main.c ****     uint8_t reg_data = 0;
 820              		.loc 1 522 1 view -0
 821              		.cfi_startproc
 822              		@ args = 0, pretend = 0, frame = 16
 823              		@ frame_needed = 0, uses_anonymous_args = 0
 522:Core/Src/main.c ****     uint8_t reg_data = 0;
ARM GAS  /var/folders/l4/6w9kflz11csb_6qsyz46nv3c0000gp/T//cck4x9NQ.s 			page 31


 824              		.loc 1 522 1 is_stmt 0 view .LVU180
 825 0000 F0B5     		push	{r4, r5, r6, r7, lr}
 826              		.cfi_def_cfa_offset 20
 827              		.cfi_offset 4, -20
 828              		.cfi_offset 5, -16
 829              		.cfi_offset 6, -12
 830              		.cfi_offset 7, -8
 831              		.cfi_offset 14, -4
 832 0002 89B0     		sub	sp, sp, #36
 833              		.cfi_def_cfa_offset 56
 834 0004 0500     		movs	r5, r0
 835 0006 0491     		str	r1, [sp, #16]
 836 0008 0592     		str	r2, [sp, #20]
 837 000a 1E00     		movs	r6, r3
 523:Core/Src/main.c ****     uint32_t tickstart = HAL_GetTick();
 838              		.loc 1 523 5 is_stmt 1 view .LVU181
 523:Core/Src/main.c ****     uint32_t tickstart = HAL_GetTick();
 839              		.loc 1 523 13 is_stmt 0 view .LVU182
 840 000c 1727     		movs	r7, #23
 841 000e 02AB     		add	r3, sp, #8
 842              	.LVL55:
 523:Core/Src/main.c ****     uint32_t tickstart = HAL_GetTick();
 843              		.loc 1 523 13 view .LVU183
 844 0010 9C46     		mov	ip, r3
 845 0012 6744     		add	r7, r7, ip
 846 0014 0023     		movs	r3, #0
 847 0016 3B70     		strb	r3, [r7]
 524:Core/Src/main.c **** 
 848              		.loc 1 524 5 is_stmt 1 view .LVU184
 524:Core/Src/main.c **** 
 849              		.loc 1 524 26 is_stmt 0 view .LVU185
 850 0018 FFF7FEFF 		bl	HAL_GetTick
 851              	.LVL56:
 524:Core/Src/main.c **** 
 852              		.loc 1 524 26 view .LVU186
 853 001c 0400     		movs	r4, r0
 854              	.LVL57:
 528:Core/Src/main.c ****         return HAL_ERROR;
 855              		.loc 1 528 5 is_stmt 1 view .LVU187
 528:Core/Src/main.c ****         return HAL_ERROR;
 856              		.loc 1 528 9 is_stmt 0 view .LVU188
 857 001e 0123     		movs	r3, #1
 858 0020 5B42     		rsbs	r3, r3, #0
 859 0022 0293     		str	r3, [sp, #8]
 860 0024 0233     		adds	r3, r3, #2
 861 0026 0193     		str	r3, [sp, #4]
 862 0028 0097     		str	r7, [sp]
 863 002a 9622     		movs	r2, #150
 864 002c 7221     		movs	r1, #114
 865 002e 2800     		movs	r0, r5
 866              	.LVL58:
 528:Core/Src/main.c ****         return HAL_ERROR;
 867              		.loc 1 528 9 view .LVU189
 868 0030 FFF7FEFF 		bl	HAL_I2C_Mem_Read
 869              	.LVL59:
 528:Core/Src/main.c ****         return HAL_ERROR;
 870              		.loc 1 528 8 discriminator 1 view .LVU190
ARM GAS  /var/folders/l4/6w9kflz11csb_6qsyz46nv3c0000gp/T//cck4x9NQ.s 			page 32


 871 0034 0028     		cmp	r0, #0
 872 0036 02D0     		beq	.L42
 529:Core/Src/main.c ****     }
 873              		.loc 1 529 16 view .LVU191
 874 0038 0120     		movs	r0, #1
 875              	.L33:
 565:Core/Src/main.c **** 
 876              		.loc 1 565 1 view .LVU192
 877 003a 09B0     		add	sp, sp, #36
 878              		@ sp needed
 879              	.LVL60:
 880              	.LVL61:
 881              	.LVL62:
 565:Core/Src/main.c **** 
 882              		.loc 1 565 1 view .LVU193
 883 003c F0BD     		pop	{r4, r5, r6, r7, pc}
 884              	.LVL63:
 885              	.L42:
 535:Core/Src/main.c ****     if (HAL_I2C_Mem_Write(hi2c_dev, ADV7513_MAIN_ADDR, REG_EDID_SEGMENT, I2C_MEMADD_SIZE_8BIT, &reg
 886              		.loc 1 535 5 is_stmt 1 view .LVU194
 535:Core/Src/main.c ****     if (HAL_I2C_Mem_Write(hi2c_dev, ADV7513_MAIN_ADDR, REG_EDID_SEGMENT, I2C_MEMADD_SIZE_8BIT, &reg
 887              		.loc 1 535 14 is_stmt 0 view .LVU195
 888 003e 049A     		ldr	r2, [sp, #16]
 889 0040 3A70     		strb	r2, [r7]
 536:Core/Src/main.c ****         return HAL_ERROR;
 890              		.loc 1 536 5 is_stmt 1 view .LVU196
 536:Core/Src/main.c ****         return HAL_ERROR;
 891              		.loc 1 536 9 is_stmt 0 view .LVU197
 892 0042 0122     		movs	r2, #1
 893 0044 5242     		rsbs	r2, r2, #0
 894 0046 0292     		str	r2, [sp, #8]
 895 0048 0232     		adds	r2, r2, #2
 896 004a 0192     		str	r2, [sp, #4]
 897 004c 0097     		str	r7, [sp]
 898 004e 0123     		movs	r3, #1
 899 0050 C332     		adds	r2, r2, #195
 900 0052 7221     		movs	r1, #114
 901 0054 2800     		movs	r0, r5
 902 0056 FFF7FEFF 		bl	HAL_I2C_Mem_Write
 903              	.LVL64:
 536:Core/Src/main.c ****         return HAL_ERROR;
 904              		.loc 1 536 8 discriminator 1 view .LVU198
 905 005a 0028     		cmp	r0, #0
 906 005c 36D1     		bne	.L43
 907              	.L34:
 542:Core/Src/main.c ****         if (HAL_I2C_Mem_Read(hi2c_dev, ADV7513_MAIN_ADDR, REG_EDID_RDY_FLAG, I2C_MEMADD_SIZE_8BIT, 
 908              		.loc 1 542 40 is_stmt 1 view .LVU199
 542:Core/Src/main.c ****         if (HAL_I2C_Mem_Read(hi2c_dev, ADV7513_MAIN_ADDR, REG_EDID_RDY_FLAG, I2C_MEMADD_SIZE_8BIT, 
 909              		.loc 1 542 13 is_stmt 0 view .LVU200
 910 005e FFF7FEFF 		bl	HAL_GetTick
 911              	.LVL65:
 542:Core/Src/main.c ****         if (HAL_I2C_Mem_Read(hi2c_dev, ADV7513_MAIN_ADDR, REG_EDID_RDY_FLAG, I2C_MEMADD_SIZE_8BIT, 
 912              		.loc 1 542 27 discriminator 1 view .LVU201
 913 0062 001B     		subs	r0, r0, r4
 542:Core/Src/main.c ****         if (HAL_I2C_Mem_Read(hi2c_dev, ADV7513_MAIN_ADDR, REG_EDID_RDY_FLAG, I2C_MEMADD_SIZE_8BIT, 
 914              		.loc 1 542 40 discriminator 1 view .LVU202
 915 0064 B042     		cmp	r0, r6
ARM GAS  /var/folders/l4/6w9kflz11csb_6qsyz46nv3c0000gp/T//cck4x9NQ.s 			page 33


 916 0066 18D2     		bcs	.L35
 543:Core/Src/main.c ****             return HAL_ERROR;
 917              		.loc 1 543 9 is_stmt 1 view .LVU203
 543:Core/Src/main.c ****             return HAL_ERROR;
 918              		.loc 1 543 13 is_stmt 0 view .LVU204
 919 0068 0123     		movs	r3, #1
 920 006a 5B42     		rsbs	r3, r3, #0
 921 006c 0293     		str	r3, [sp, #8]
 922 006e 0233     		adds	r3, r3, #2
 923 0070 0193     		str	r3, [sp, #4]
 924 0072 1633     		adds	r3, r3, #22
 925 0074 02AA     		add	r2, sp, #8
 926 0076 9446     		mov	ip, r2
 927 0078 6344     		add	r3, r3, ip
 928 007a 0093     		str	r3, [sp]
 929 007c 0123     		movs	r3, #1
 930 007e 9622     		movs	r2, #150
 931 0080 7221     		movs	r1, #114
 932 0082 2800     		movs	r0, r5
 933 0084 FFF7FEFF 		bl	HAL_I2C_Mem_Read
 934              	.LVL66:
 543:Core/Src/main.c ****             return HAL_ERROR;
 935              		.loc 1 543 12 discriminator 1 view .LVU205
 936 0088 0028     		cmp	r0, #0
 937 008a 21D1     		bne	.L40
 547:Core/Src/main.c ****             break;
 938              		.loc 1 547 9 is_stmt 1 view .LVU206
 547:Core/Src/main.c ****             break;
 939              		.loc 1 547 22 is_stmt 0 view .LVU207
 940 008c 1723     		movs	r3, #23
 941 008e 02AA     		add	r2, sp, #8
 942 0090 9446     		mov	ip, r2
 943 0092 6344     		add	r3, r3, ip
 944 0094 1978     		ldrb	r1, [r3]
 547:Core/Src/main.c ****             break;
 945              		.loc 1 547 12 view .LVU208
 946 0096 4907     		lsls	r1, r1, #29
 947 0098 E1D5     		bpl	.L34
 948              	.L35:
 553:Core/Src/main.c ****         Error_Handler();
 949              		.loc 1 553 5 is_stmt 1 view .LVU209
 553:Core/Src/main.c ****         Error_Handler();
 950              		.loc 1 553 10 is_stmt 0 view .LVU210
 951 009a FFF7FEFF 		bl	HAL_GetTick
 952              	.LVL67:
 553:Core/Src/main.c ****         Error_Handler();
 953              		.loc 1 553 24 discriminator 1 view .LVU211
 954 009e 001B     		subs	r0, r0, r4
 553:Core/Src/main.c ****         Error_Handler();
 955              		.loc 1 553 8 discriminator 1 view .LVU212
 956 00a0 B042     		cmp	r0, r6
 957 00a2 11D2     		bcs	.L44
 559:Core/Src/main.c ****         Error_Handler();
 958              		.loc 1 559 5 is_stmt 1 view .LVU213
 559:Core/Src/main.c ****         Error_Handler();
 959              		.loc 1 559 9 is_stmt 0 view .LVU214
 960 00a4 0123     		movs	r3, #1
ARM GAS  /var/folders/l4/6w9kflz11csb_6qsyz46nv3c0000gp/T//cck4x9NQ.s 			page 34


 961 00a6 5B42     		rsbs	r3, r3, #0
 962 00a8 0293     		str	r3, [sp, #8]
 963 00aa 0233     		adds	r3, r3, #2
 964 00ac FF33     		adds	r3, r3, #255
 965 00ae 0193     		str	r3, [sp, #4]
 966 00b0 059B     		ldr	r3, [sp, #20]
 967 00b2 0093     		str	r3, [sp]
 968 00b4 0123     		movs	r3, #1
 969 00b6 0022     		movs	r2, #0
 970 00b8 7E21     		movs	r1, #126
 971 00ba 2800     		movs	r0, r5
 972 00bc FFF7FEFF 		bl	HAL_I2C_Mem_Read
 973              	.LVL68:
 559:Core/Src/main.c ****         Error_Handler();
 974              		.loc 1 559 8 discriminator 1 view .LVU215
 975 00c0 0028     		cmp	r0, #0
 976 00c2 BAD0     		beq	.L33
 560:Core/Src/main.c ****     }
 977              		.loc 1 560 9 is_stmt 1 view .LVU216
 978 00c4 FFF7FEFF 		bl	Error_Handler
 979              	.LVL69:
 980              	.L44:
 554:Core/Src/main.c ****     }
 981              		.loc 1 554 9 view .LVU217
 982 00c8 FFF7FEFF 		bl	Error_Handler
 983              	.LVL70:
 984              	.L43:
 537:Core/Src/main.c ****     }
 985              		.loc 1 537 16 is_stmt 0 view .LVU218
 986 00cc 0120     		movs	r0, #1
 987 00ce B4E7     		b	.L33
 988              	.L40:
 544:Core/Src/main.c ****         }
 989              		.loc 1 544 20 view .LVU219
 990 00d0 0120     		movs	r0, #1
 991 00d2 B2E7     		b	.L33
 992              		.cfi_endproc
 993              	.LFE52:
 995              		.section	.rodata.ADV7513_WriteVerifyReg.str1.4,"aMS",%progbits,1
 996              		.align	2
 997              	.LC35:
 998 0000 20577269 		.ascii	" Write ERROR\012\000"
 998      74652045 
 998      52524F52 
 998      0A00
 999 000e 0000     		.align	2
 1000              	.LC37:
 1001 0010 20526561 		.ascii	" Read ERROR\012\000"
 1001      64204552 
 1001      524F520A 
 1001      00
 1002 001d 000000   		.align	2
 1003              	.LC39:
 1004 0020 20566572 		.ascii	" Verify FAIL\012\000"
 1004      69667920 
 1004      4641494C 
 1004      0A00
ARM GAS  /var/folders/l4/6w9kflz11csb_6qsyz46nv3c0000gp/T//cck4x9NQ.s 			page 35


 1005 002e 0000     		.align	2
 1006              	.LC41:
 1007 0030 203D3E20 		.ascii	" => OK\012\000"
 1007      4F4B0A00 
 1008              		.section	.text.ADV7513_WriteVerifyReg,"ax",%progbits
 1009              		.align	1
 1010              		.global	ADV7513_WriteVerifyReg
 1011              		.syntax unified
 1012              		.code	16
 1013              		.thumb_func
 1015              	ADV7513_WriteVerifyReg:
 1016              	.LVL71:
 1017              	.LFB53:
 570:Core/Src/main.c ****     HAL_StatusTypeDef status;
 1018              		.loc 1 570 1 is_stmt 1 view -0
 1019              		.cfi_startproc
 1020              		@ args = 0, pretend = 0, frame = 8
 1021              		@ frame_needed = 0, uses_anonymous_args = 0
 570:Core/Src/main.c ****     HAL_StatusTypeDef status;
 1022              		.loc 1 570 1 is_stmt 0 view .LVU221
 1023 0000 70B5     		push	{r4, r5, r6, lr}
 1024              		.cfi_def_cfa_offset 16
 1025              		.cfi_offset 4, -16
 1026              		.cfi_offset 5, -12
 1027              		.cfi_offset 6, -8
 1028              		.cfi_offset 14, -4
 1029 0002 86B0     		sub	sp, sp, #24
 1030              		.cfi_def_cfa_offset 40
 1031 0004 0600     		movs	r6, r0
 1032 0006 0D00     		movs	r5, r1
 1033 0008 1400     		movs	r4, r2
 571:Core/Src/main.c ****     uint8_t write_val = reg_value;
 1034              		.loc 1 571 5 is_stmt 1 view .LVU222
 572:Core/Src/main.c ****     uint8_t read_val = 0;
 1035              		.loc 1 572 5 view .LVU223
 572:Core/Src/main.c ****     uint8_t read_val = 0;
 1036              		.loc 1 572 13 is_stmt 0 view .LVU224
 1037 000a 1723     		movs	r3, #23
 1038 000c 6B44     		add	r3, r3, sp
 1039 000e 1970     		strb	r1, [r3]
 573:Core/Src/main.c **** 
 1040              		.loc 1 573 5 is_stmt 1 view .LVU225
 573:Core/Src/main.c **** 
 1041              		.loc 1 573 13 is_stmt 0 view .LVU226
 1042 0010 1622     		movs	r2, #22
 1043              	.LVL72:
 573:Core/Src/main.c **** 
 1044              		.loc 1 573 13 view .LVU227
 1045 0012 6A44     		add	r2, r2, sp
 1046 0014 0021     		movs	r1, #0
 1047              	.LVL73:
 573:Core/Src/main.c **** 
 1048              		.loc 1 573 13 view .LVU228
 1049 0016 1170     		strb	r1, [r2]
 576:Core/Src/main.c ****     if(status != HAL_OK) {
 1050              		.loc 1 576 5 is_stmt 1 view .LVU229
 576:Core/Src/main.c ****     if(status != HAL_OK) {
ARM GAS  /var/folders/l4/6w9kflz11csb_6qsyz46nv3c0000gp/T//cck4x9NQ.s 			page 36


 1051              		.loc 1 576 14 is_stmt 0 view .LVU230
 1052 0018 3948     		ldr	r0, .L52
 1053              	.LVL74:
 576:Core/Src/main.c ****     if(status != HAL_OK) {
 1054              		.loc 1 576 14 view .LVU231
 1055 001a 0122     		movs	r2, #1
 1056 001c 5242     		rsbs	r2, r2, #0
 1057 001e 0292     		str	r2, [sp, #8]
 1058              	.LVL75:
 576:Core/Src/main.c ****     if(status != HAL_OK) {
 1059              		.loc 1 576 14 view .LVU232
 1060 0020 0232     		adds	r2, r2, #2
 1061 0022 0192     		str	r2, [sp, #4]
 1062 0024 0093     		str	r3, [sp]
 1063 0026 0123     		movs	r3, #1
 1064 0028 3200     		movs	r2, r6
 1065 002a 7231     		adds	r1, r1, #114
 1066 002c FFF7FEFF 		bl	HAL_I2C_Mem_Write
 1067              	.LVL76:
 577:Core/Src/main.c ****         HAL_UART_Transmit(&huart1, (uint8_t*)reg_name, strlen(reg_name), HAL_MAX_DELAY);
 1068              		.loc 1 577 5 is_stmt 1 view .LVU233
 577:Core/Src/main.c ****         HAL_UART_Transmit(&huart1, (uint8_t*)reg_name, strlen(reg_name), HAL_MAX_DELAY);
 1069              		.loc 1 577 7 is_stmt 0 view .LVU234
 1070 0030 0028     		cmp	r0, #0
 1071 0032 28D1     		bne	.L49
 584:Core/Src/main.c ****     if(status != HAL_OK) {
 1072              		.loc 1 584 5 is_stmt 1 view .LVU235
 584:Core/Src/main.c ****     if(status != HAL_OK) {
 1073              		.loc 1 584 14 is_stmt 0 view .LVU236
 1074 0034 3248     		ldr	r0, .L52
 1075              	.LVL77:
 584:Core/Src/main.c ****     if(status != HAL_OK) {
 1076              		.loc 1 584 14 view .LVU237
 1077 0036 0123     		movs	r3, #1
 1078 0038 5B42     		rsbs	r3, r3, #0
 1079 003a 0293     		str	r3, [sp, #8]
 1080 003c 0233     		adds	r3, r3, #2
 1081 003e 0193     		str	r3, [sp, #4]
 1082 0040 1533     		adds	r3, r3, #21
 1083 0042 6B44     		add	r3, r3, sp
 1084 0044 0093     		str	r3, [sp]
 1085 0046 0123     		movs	r3, #1
 1086 0048 3200     		movs	r2, r6
 1087 004a 7221     		movs	r1, #114
 1088 004c FFF7FEFF 		bl	HAL_I2C_Mem_Read
 1089              	.LVL78:
 585:Core/Src/main.c ****         HAL_UART_Transmit(&huart1, (uint8_t*)reg_name, strlen(reg_name), HAL_MAX_DELAY);
 1090              		.loc 1 585 5 is_stmt 1 view .LVU238
 585:Core/Src/main.c ****         HAL_UART_Transmit(&huart1, (uint8_t*)reg_name, strlen(reg_name), HAL_MAX_DELAY);
 1091              		.loc 1 585 7 is_stmt 0 view .LVU239
 1092 0050 0028     		cmp	r0, #0
 1093 0052 2CD1     		bne	.L50
 592:Core/Src/main.c ****         HAL_UART_Transmit(&huart1, (uint8_t*)reg_name, strlen(reg_name), HAL_MAX_DELAY);
 1094              		.loc 1 592 5 is_stmt 1 view .LVU240
 592:Core/Src/main.c ****         HAL_UART_Transmit(&huart1, (uint8_t*)reg_name, strlen(reg_name), HAL_MAX_DELAY);
 1095              		.loc 1 592 17 is_stmt 0 view .LVU241
 1096 0054 1623     		movs	r3, #22
ARM GAS  /var/folders/l4/6w9kflz11csb_6qsyz46nv3c0000gp/T//cck4x9NQ.s 			page 37


 1097 0056 6B44     		add	r3, r3, sp
 1098 0058 1B78     		ldrb	r3, [r3]
 592:Core/Src/main.c ****         HAL_UART_Transmit(&huart1, (uint8_t*)reg_name, strlen(reg_name), HAL_MAX_DELAY);
 1099              		.loc 1 592 7 view .LVU242
 1100 005a AB42     		cmp	r3, r5
 1101 005c 3BD1     		bne	.L51
 597:Core/Src/main.c ****         HAL_UART_Transmit(&huart1, (uint8_t*)" => OK\n", 7, HAL_MAX_DELAY);
 1102              		.loc 1 597 9 is_stmt 1 view .LVU243
 597:Core/Src/main.c ****         HAL_UART_Transmit(&huart1, (uint8_t*)" => OK\n", 7, HAL_MAX_DELAY);
 1103              		.loc 1 597 56 is_stmt 0 view .LVU244
 1104 005e 2000     		movs	r0, r4
 1105              	.LVL79:
 597:Core/Src/main.c ****         HAL_UART_Transmit(&huart1, (uint8_t*)" => OK\n", 7, HAL_MAX_DELAY);
 1106              		.loc 1 597 56 view .LVU245
 1107 0060 FFF7FEFF 		bl	strlen
 1108              	.LVL80:
 597:Core/Src/main.c ****         HAL_UART_Transmit(&huart1, (uint8_t*)" => OK\n", 7, HAL_MAX_DELAY);
 1109              		.loc 1 597 9 discriminator 1 view .LVU246
 1110 0064 0126     		movs	r6, #1
 1111              	.LVL81:
 597:Core/Src/main.c ****         HAL_UART_Transmit(&huart1, (uint8_t*)" => OK\n", 7, HAL_MAX_DELAY);
 1112              		.loc 1 597 9 discriminator 1 view .LVU247
 1113 0066 7642     		rsbs	r6, r6, #0
 1114 0068 82B2     		uxth	r2, r0
 1115 006a 264D     		ldr	r5, .L52+4
 1116              	.LVL82:
 597:Core/Src/main.c ****         HAL_UART_Transmit(&huart1, (uint8_t*)" => OK\n", 7, HAL_MAX_DELAY);
 1117              		.loc 1 597 9 discriminator 1 view .LVU248
 1118 006c 3300     		movs	r3, r6
 1119 006e 2100     		movs	r1, r4
 1120 0070 2800     		movs	r0, r5
 1121 0072 FFF7FEFF 		bl	HAL_UART_Transmit
 1122              	.LVL83:
 598:Core/Src/main.c ****     }
 1123              		.loc 1 598 9 is_stmt 1 view .LVU249
 1124 0076 2449     		ldr	r1, .L52+8
 1125 0078 3300     		movs	r3, r6
 1126 007a 0722     		movs	r2, #7
 1127 007c 2800     		movs	r0, r5
 1128 007e FFF7FEFF 		bl	HAL_UART_Transmit
 1129              	.LVL84:
 600:Core/Src/main.c **** 
 1130              		.loc 1 600 1 is_stmt 0 view .LVU250
 1131 0082 06B0     		add	sp, sp, #24
 1132              		@ sp needed
 1133              	.LVL85:
 600:Core/Src/main.c **** 
 1134              		.loc 1 600 1 view .LVU251
 1135 0084 70BD     		pop	{r4, r5, r6, pc}
 1136              	.LVL86:
 1137              	.L49:
 578:Core/Src/main.c ****         HAL_UART_Transmit(&huart1, (uint8_t*)" Write ERROR\n", 13, HAL_MAX_DELAY);
 1138              		.loc 1 578 9 is_stmt 1 view .LVU252
 578:Core/Src/main.c ****         HAL_UART_Transmit(&huart1, (uint8_t*)" Write ERROR\n", 13, HAL_MAX_DELAY);
 1139              		.loc 1 578 56 is_stmt 0 view .LVU253
 1140 0086 2000     		movs	r0, r4
 1141              	.LVL87:
ARM GAS  /var/folders/l4/6w9kflz11csb_6qsyz46nv3c0000gp/T//cck4x9NQ.s 			page 38


 578:Core/Src/main.c ****         HAL_UART_Transmit(&huart1, (uint8_t*)" Write ERROR\n", 13, HAL_MAX_DELAY);
 1142              		.loc 1 578 56 view .LVU254
 1143 0088 FFF7FEFF 		bl	strlen
 1144              	.LVL88:
 578:Core/Src/main.c ****         HAL_UART_Transmit(&huart1, (uint8_t*)" Write ERROR\n", 13, HAL_MAX_DELAY);
 1145              		.loc 1 578 9 discriminator 1 view .LVU255
 1146 008c 0126     		movs	r6, #1
 1147 008e 7642     		rsbs	r6, r6, #0
 1148 0090 82B2     		uxth	r2, r0
 1149 0092 1C4D     		ldr	r5, .L52+4
 1150 0094 3300     		movs	r3, r6
 1151 0096 2100     		movs	r1, r4
 1152 0098 2800     		movs	r0, r5
 1153 009a FFF7FEFF 		bl	HAL_UART_Transmit
 1154              	.LVL89:
 579:Core/Src/main.c ****         Error_Handler();
 1155              		.loc 1 579 9 is_stmt 1 view .LVU256
 1156 009e 1B49     		ldr	r1, .L52+12
 1157 00a0 3300     		movs	r3, r6
 1158 00a2 0D22     		movs	r2, #13
 1159 00a4 2800     		movs	r0, r5
 1160 00a6 FFF7FEFF 		bl	HAL_UART_Transmit
 1161              	.LVL90:
 580:Core/Src/main.c ****     }
 1162              		.loc 1 580 9 view .LVU257
 1163 00aa FFF7FEFF 		bl	Error_Handler
 1164              	.LVL91:
 1165              	.L50:
 586:Core/Src/main.c ****         HAL_UART_Transmit(&huart1, (uint8_t*)" Read ERROR\n", 12, HAL_MAX_DELAY);
 1166              		.loc 1 586 9 view .LVU258
 586:Core/Src/main.c ****         HAL_UART_Transmit(&huart1, (uint8_t*)" Read ERROR\n", 12, HAL_MAX_DELAY);
 1167              		.loc 1 586 56 is_stmt 0 view .LVU259
 1168 00ae 2000     		movs	r0, r4
 1169              	.LVL92:
 586:Core/Src/main.c ****         HAL_UART_Transmit(&huart1, (uint8_t*)" Read ERROR\n", 12, HAL_MAX_DELAY);
 1170              		.loc 1 586 56 view .LVU260
 1171 00b0 FFF7FEFF 		bl	strlen
 1172              	.LVL93:
 586:Core/Src/main.c ****         HAL_UART_Transmit(&huart1, (uint8_t*)" Read ERROR\n", 12, HAL_MAX_DELAY);
 1173              		.loc 1 586 9 discriminator 1 view .LVU261
 1174 00b4 0126     		movs	r6, #1
 1175 00b6 7642     		rsbs	r6, r6, #0
 1176 00b8 82B2     		uxth	r2, r0
 1177 00ba 124D     		ldr	r5, .L52+4
 1178 00bc 3300     		movs	r3, r6
 1179 00be 2100     		movs	r1, r4
 1180 00c0 2800     		movs	r0, r5
 1181 00c2 FFF7FEFF 		bl	HAL_UART_Transmit
 1182              	.LVL94:
 587:Core/Src/main.c ****         Error_Handler();
 1183              		.loc 1 587 9 is_stmt 1 view .LVU262
 1184 00c6 1249     		ldr	r1, .L52+16
 1185 00c8 3300     		movs	r3, r6
 1186 00ca 0C22     		movs	r2, #12
 1187 00cc 2800     		movs	r0, r5
 1188 00ce FFF7FEFF 		bl	HAL_UART_Transmit
 1189              	.LVL95:
ARM GAS  /var/folders/l4/6w9kflz11csb_6qsyz46nv3c0000gp/T//cck4x9NQ.s 			page 39


 588:Core/Src/main.c ****     }
 1190              		.loc 1 588 9 view .LVU263
 1191 00d2 FFF7FEFF 		bl	Error_Handler
 1192              	.LVL96:
 1193              	.L51:
 593:Core/Src/main.c ****         HAL_UART_Transmit(&huart1, (uint8_t*)" Verify FAIL\n", 13, HAL_MAX_DELAY);
 1194              		.loc 1 593 9 view .LVU264
 593:Core/Src/main.c ****         HAL_UART_Transmit(&huart1, (uint8_t*)" Verify FAIL\n", 13, HAL_MAX_DELAY);
 1195              		.loc 1 593 56 is_stmt 0 view .LVU265
 1196 00d6 2000     		movs	r0, r4
 1197              	.LVL97:
 593:Core/Src/main.c ****         HAL_UART_Transmit(&huart1, (uint8_t*)" Verify FAIL\n", 13, HAL_MAX_DELAY);
 1198              		.loc 1 593 56 view .LVU266
 1199 00d8 FFF7FEFF 		bl	strlen
 1200              	.LVL98:
 593:Core/Src/main.c ****         HAL_UART_Transmit(&huart1, (uint8_t*)" Verify FAIL\n", 13, HAL_MAX_DELAY);
 1201              		.loc 1 593 9 discriminator 1 view .LVU267
 1202 00dc 0126     		movs	r6, #1
 1203 00de 7642     		rsbs	r6, r6, #0
 1204 00e0 82B2     		uxth	r2, r0
 1205 00e2 084D     		ldr	r5, .L52+4
 1206 00e4 3300     		movs	r3, r6
 1207 00e6 2100     		movs	r1, r4
 1208 00e8 2800     		movs	r0, r5
 1209 00ea FFF7FEFF 		bl	HAL_UART_Transmit
 1210              	.LVL99:
 594:Core/Src/main.c ****         Error_Handler();
 1211              		.loc 1 594 9 is_stmt 1 view .LVU268
 1212 00ee 0949     		ldr	r1, .L52+20
 1213 00f0 3300     		movs	r3, r6
 1214 00f2 0D22     		movs	r2, #13
 1215 00f4 2800     		movs	r0, r5
 1216 00f6 FFF7FEFF 		bl	HAL_UART_Transmit
 1217              	.LVL100:
 595:Core/Src/main.c ****     } else {
 1218              		.loc 1 595 9 view .LVU269
 1219 00fa FFF7FEFF 		bl	Error_Handler
 1220              	.LVL101:
 1221              	.L53:
 1222 00fe C046     		.align	2
 1223              	.L52:
 1224 0100 00000000 		.word	hi2c1
 1225 0104 00000000 		.word	huart1
 1226 0108 30000000 		.word	.LC41
 1227 010c 00000000 		.word	.LC35
 1228 0110 10000000 		.word	.LC37
 1229 0114 20000000 		.word	.LC39
 1230              		.cfi_endproc
 1231              	.LFE53:
 1233              		.section	.rodata.ADV7513_HDMI_Init.str1.4,"aMS",%progbits,1
 1234              		.align	2
 1235              	.LC43:
 1236 0000 4144495F 		.ascii	"ADI_RECOMMENDED\000"
 1236      5245434F 
 1236      4D4D454E 
 1236      44454400 
 1237              		.align	2
ARM GAS  /var/folders/l4/6w9kflz11csb_6qsyz46nv3c0000gp/T//cck4x9NQ.s 			page 40


 1238              	.LC45:
 1239 0010 6D757374 		.ascii	"must be set to default\000"
 1239      20626520 
 1239      73657420 
 1239      746F2064 
 1239      65666175 
 1240 0027 00       		.align	2
 1241              	.LC47:
 1242 0028 436C6561 		.ascii	"Clear_AVMute\000"
 1242      725F4156 
 1242      4D757465 
 1242      00
 1243 0035 000000   		.align	2
 1244              	.LC49:
 1245 0038 544D4453 		.ascii	"TMDS_CLK_DRIVER_ON\000"
 1245      5F434C4B 
 1245      5F445249 
 1245      5645525F 
 1245      4F4E00
 1246 004b 00       		.align	2
 1247              	.LC51:
 1248 004c 52474238 		.ascii	"RGB888_4:4:4\000"
 1248      38385F34 
 1248      3A343A34 
 1248      00
 1249 0059 000000   		.align	2
 1250              	.LC53:
 1251 005c 4F757470 		.ascii	"Output_Format_444_8bit\000"
 1251      75745F46 
 1251      6F726D61 
 1251      745F3434 
 1251      345F3862 
 1252 0073 00       		.align	2
 1253              	.LC55:
 1254 0074 4353435F 		.ascii	"CSC_Disabled\000"
 1254      44697361 
 1254      626C6564 
 1254      00
 1255 0081 000000   		.align	2
 1256              	.LC57:
 1257 0084 48532056 		.ascii	"HS VS AL 4:3\000"
 1257      5320414C 
 1257      20343A33 
 1257      00
 1258 0091 000000   		.align	2
 1259              	.LC59:
 1260 0094 544D4453 		.ascii	"TMDS_ENABLE\000"
 1260      5F454E41 
 1260      424C4500 
 1261              		.align	2
 1262              	.LC61:
 1263 00a0 48444D49 		.ascii	"HDMI ON\000"
 1263      204F4E00 
 1264              		.align	2
 1265              	.LC63:
 1266 00a8 20415649 		.ascii	" AVI PACKET ENABLE\000"
 1266      20504143 
ARM GAS  /var/folders/l4/6w9kflz11csb_6qsyz46nv3c0000gp/T//cck4x9NQ.s 			page 41


 1266      4B455420 
 1266      454E4142 
 1266      4C4500
 1267 00bb 00       		.align	2
 1268              	.LC65:
 1269 00bc 41564900 		.ascii	"AVI\000"
 1270              		.section	.text.ADV7513_HDMI_Init,"ax",%progbits
 1271              		.align	1
 1272              		.global	ADV7513_HDMI_Init
 1273              		.syntax unified
 1274              		.code	16
 1275              		.thumb_func
 1277              	ADV7513_HDMI_Init:
 1278              	.LFB51:
 480:Core/Src/main.c **** 
 1279              		.loc 1 480 1 view -0
 1280              		.cfi_startproc
 1281              		@ args = 0, pretend = 0, frame = 0
 1282              		@ frame_needed = 0, uses_anonymous_args = 0
 1283 0000 10B5     		push	{r4, lr}
 1284              		.cfi_def_cfa_offset 8
 1285              		.cfi_offset 4, -8
 1286              		.cfi_offset 14, -4
 484:Core/Src/main.c ****     ADV7513_WriteVerifyReg(0xA5, 0x44, "ADI_RECOMMENDED");
 1287              		.loc 1 484 5 view .LVU271
 1288 0002 2C4C     		ldr	r4, .L55
 1289 0004 2200     		movs	r2, r4
 1290 0006 0221     		movs	r1, #2
 1291 0008 9920     		movs	r0, #153
 1292 000a FFF7FEFF 		bl	ADV7513_WriteVerifyReg
 1293              	.LVL102:
 485:Core/Src/main.c ****     ADV7513_WriteVerifyReg(0xAB, 0x40, "ADI_RECOMMENDED");
 1294              		.loc 1 485 5 view .LVU272
 1295 000e 2200     		movs	r2, r4
 1296 0010 4421     		movs	r1, #68
 1297 0012 A520     		movs	r0, #165
 1298 0014 FFF7FEFF 		bl	ADV7513_WriteVerifyReg
 1299              	.LVL103:
 486:Core/Src/main.c ****     ADV7513_WriteVerifyReg(0xD1, 0xFF, "ADI_RECOMMENDED");
 1300              		.loc 1 486 5 view .LVU273
 1301 0018 2200     		movs	r2, r4
 1302 001a 4021     		movs	r1, #64
 1303 001c AB20     		movs	r0, #171
 1304 001e FFF7FEFF 		bl	ADV7513_WriteVerifyReg
 1305              	.LVL104:
 487:Core/Src/main.c ****     ADV7513_WriteVerifyReg(0xFA, 0x7D, "ADI_RECOMMENDED");
 1306              		.loc 1 487 5 view .LVU274
 1307 0022 2200     		movs	r2, r4
 1308 0024 FF21     		movs	r1, #255
 1309 0026 D120     		movs	r0, #209
 1310 0028 FFF7FEFF 		bl	ADV7513_WriteVerifyReg
 1311              	.LVL105:
 488:Core/Src/main.c ****     ADV7513_WriteVerifyReg(0x49, 0xA8, "must be set to default");
 1312              		.loc 1 488 5 view .LVU275
 1313 002c 2200     		movs	r2, r4
 1314 002e 7D21     		movs	r1, #125
 1315 0030 FA20     		movs	r0, #250
ARM GAS  /var/folders/l4/6w9kflz11csb_6qsyz46nv3c0000gp/T//cck4x9NQ.s 			page 42


 1316 0032 FFF7FEFF 		bl	ADV7513_WriteVerifyReg
 1317              	.LVL106:
 489:Core/Src/main.c ****     ADV7513_WriteVerifyReg(0x4C, 0x00, "must be set to default");
 1318              		.loc 1 489 5 view .LVU276
 1319 0036 204C     		ldr	r4, .L55+4
 1320 0038 2200     		movs	r2, r4
 1321 003a A821     		movs	r1, #168
 1322 003c 4920     		movs	r0, #73
 1323 003e FFF7FEFF 		bl	ADV7513_WriteVerifyReg
 1324              	.LVL107:
 490:Core/Src/main.c ****     ADV7513_WriteVerifyReg(0x4B, 0x80, "Clear_AVMute");   // ąŠą▒čÅąĘą░čéąĄą╗čīąĮąŠ
 1325              		.loc 1 490 5 view .LVU277
 1326 0042 2200     		movs	r2, r4
 1327 0044 0021     		movs	r1, #0
 1328 0046 4C20     		movs	r0, #76
 1329 0048 FFF7FEFF 		bl	ADV7513_WriteVerifyReg
 1330              	.LVL108:
 491:Core/Src/main.c ****     ADV7513_WriteVerifyReg(0xDE, 0x10, "TMDS_CLK_DRIVER_ON"); //default
 1331              		.loc 1 491 5 view .LVU278
 1332 004c 1B4A     		ldr	r2, .L55+8
 1333 004e 8021     		movs	r1, #128
 1334 0050 4B20     		movs	r0, #75
 1335 0052 FFF7FEFF 		bl	ADV7513_WriteVerifyReg
 1336              	.LVL109:
 492:Core/Src/main.c ****     
 1337              		.loc 1 492 5 view .LVU279
 1338 0056 1A4A     		ldr	r2, .L55+12
 1339 0058 1021     		movs	r1, #16
 1340 005a DE20     		movs	r0, #222
 1341 005c FFF7FEFF 		bl	ADV7513_WriteVerifyReg
 1342              	.LVL110:
 495:Core/Src/main.c ****     ADV7513_WriteVerifyReg(0x16, 0x60, "Output_Format_444_8bit");
 1343              		.loc 1 495 5 view .LVU280
 1344 0060 184A     		ldr	r2, .L55+16
 1345 0062 0021     		movs	r1, #0
 1346 0064 1520     		movs	r0, #21
 1347 0066 FFF7FEFF 		bl	ADV7513_WriteVerifyReg
 1348              	.LVL111:
 496:Core/Src/main.c ****     ADV7513_WriteVerifyReg(0x18, 0x46, "CSC_Disabled");    // ąĖčüą┐čĆą░ą▓ą╗ąĄąĮąŠ
 1349              		.loc 1 496 5 view .LVU281
 1350 006a 174A     		ldr	r2, .L55+20
 1351 006c 6021     		movs	r1, #96
 1352 006e 1620     		movs	r0, #22
 1353 0070 FFF7FEFF 		bl	ADV7513_WriteVerifyReg
 1354              	.LVL112:
 497:Core/Src/main.c ****     // //čéąŠčćąĮąŠ ą▓ąĄčĆąĮąŠ
 1355              		.loc 1 497 5 view .LVU282
 1356 0074 154A     		ldr	r2, .L55+24
 1357 0076 4621     		movs	r1, #70
 1358 0078 1820     		movs	r0, #24
 1359 007a FFF7FEFF 		bl	ADV7513_WriteVerifyReg
 1360              	.LVL113:
 500:Core/Src/main.c ****     // // // ========== 6. ąÆą║ą╗čÄčćąĄąĮąĖąĄ TMDS ą▓čŗčģąŠą┤ą░ ==========
 1361              		.loc 1 500 5 view .LVU283
 1362 007e 144A     		ldr	r2, .L55+28
 1363 0080 6021     		movs	r1, #96
 1364 0082 1720     		movs	r0, #23
ARM GAS  /var/folders/l4/6w9kflz11csb_6qsyz46nv3c0000gp/T//cck4x9NQ.s 			page 43


 1365 0084 FFF7FEFF 		bl	ADV7513_WriteVerifyReg
 1366              	.LVL114:
 502:Core/Src/main.c ****     // // // ========== 7. ąĀąĄąČąĖą╝ HDMI ąĖ AVI InfoFrame ==========
 1367              		.loc 1 502 5 view .LVU284
 1368 0088 124A     		ldr	r2, .L55+32
 1369 008a 8021     		movs	r1, #128
 1370 008c 4020     		movs	r0, #64
 1371 008e FFF7FEFF 		bl	ADV7513_WriteVerifyReg
 1372              	.LVL115:
 505:Core/Src/main.c ****       ADV7513_WriteVerifyReg(0x44, 0x10," AVI PACKET ENABLE");
 1373              		.loc 1 505 7 view .LVU285
 1374 0092 114A     		ldr	r2, .L55+36
 1375 0094 0221     		movs	r1, #2
 1376 0096 AF20     		movs	r0, #175
 1377 0098 FFF7FEFF 		bl	ADV7513_WriteVerifyReg
 1378              	.LVL116:
 506:Core/Src/main.c ****       ADV7513_WriteVerifyReg(0x55, 0x00, "AVI");
 1379              		.loc 1 506 7 view .LVU286
 1380 009c 0F4A     		ldr	r2, .L55+40
 1381 009e 1021     		movs	r1, #16
 1382 00a0 4420     		movs	r0, #68
 1383 00a2 FFF7FEFF 		bl	ADV7513_WriteVerifyReg
 1384              	.LVL117:
 507:Core/Src/main.c **** 
 1385              		.loc 1 507 7 view .LVU287
 1386 00a6 0E4A     		ldr	r2, .L55+44
 1387 00a8 0021     		movs	r1, #0
 1388 00aa 5520     		movs	r0, #85
 1389 00ac FFF7FEFF 		bl	ADV7513_WriteVerifyReg
 1390              	.LVL118:
 518:Core/Src/main.c **** 
 1391              		.loc 1 518 1 is_stmt 0 view .LVU288
 1392              		@ sp needed
 1393 00b0 10BD     		pop	{r4, pc}
 1394              	.L56:
 1395 00b2 C046     		.align	2
 1396              	.L55:
 1397 00b4 00000000 		.word	.LC43
 1398 00b8 10000000 		.word	.LC45
 1399 00bc 28000000 		.word	.LC47
 1400 00c0 38000000 		.word	.LC49
 1401 00c4 4C000000 		.word	.LC51
 1402 00c8 5C000000 		.word	.LC53
 1403 00cc 74000000 		.word	.LC55
 1404 00d0 84000000 		.word	.LC57
 1405 00d4 94000000 		.word	.LC59
 1406 00d8 A0000000 		.word	.LC61
 1407 00dc A8000000 		.word	.LC63
 1408 00e0 BC000000 		.word	.LC65
 1409              		.cfi_endproc
 1410              	.LFE51:
 1412              		.section	.rodata.ADV7513_Read_Interrupts.str1.4,"aMS",%progbits,1
 1413              		.align	2
 1414              	.LC68:
 1415 0000 434C4541 		.ascii	"CLEAR_VSYNC_INT\000"
 1415      525F5653 
 1415      594E435F 
ARM GAS  /var/folders/l4/6w9kflz11csb_6qsyz46nv3c0000gp/T//cck4x9NQ.s 			page 44


 1415      494E5400 
 1416              		.section	.text.ADV7513_Read_Interrupts,"ax",%progbits
 1417              		.align	1
 1418              		.global	ADV7513_Read_Interrupts
 1419              		.syntax unified
 1420              		.code	16
 1421              		.thumb_func
 1423              	ADV7513_Read_Interrupts:
 1424              	.LFB48:
 373:Core/Src/main.c ****     uint8_t interruptReg = 0;
 1425              		.loc 1 373 1 is_stmt 1 view -0
 1426              		.cfi_startproc
 1427              		@ args = 0, pretend = 0, frame = 8
 1428              		@ frame_needed = 0, uses_anonymous_args = 0
 1429 0000 00B5     		push	{lr}
 1430              		.cfi_def_cfa_offset 4
 1431              		.cfi_offset 14, -4
 1432 0002 87B0     		sub	sp, sp, #28
 1433              		.cfi_def_cfa_offset 32
 374:Core/Src/main.c ****     
 1434              		.loc 1 374 5 view .LVU290
 374:Core/Src/main.c ****     
 1435              		.loc 1 374 13 is_stmt 0 view .LVU291
 1436 0004 1723     		movs	r3, #23
 1437 0006 6B44     		add	r3, r3, sp
 1438 0008 0022     		movs	r2, #0
 1439 000a 1A70     		strb	r2, [r3]
 376:Core/Src/main.c ****     {
 1440              		.loc 1 376 5 is_stmt 1 view .LVU292
 376:Core/Src/main.c ****     {
 1441              		.loc 1 376 8 is_stmt 0 view .LVU293
 1442 000c 0D48     		ldr	r0, .L63
 1443 000e 013A     		subs	r2, r2, #1
 1444 0010 0292     		str	r2, [sp, #8]
 1445 0012 0232     		adds	r2, r2, #2
 1446 0014 0192     		str	r2, [sp, #4]
 1447 0016 0093     		str	r3, [sp]
 1448 0018 0123     		movs	r3, #1
 1449 001a 9532     		adds	r2, r2, #149
 1450 001c 7221     		movs	r1, #114
 1451 001e FFF7FEFF 		bl	HAL_I2C_Mem_Read
 1452              	.LVL119:
 376:Core/Src/main.c ****     {
 1453              		.loc 1 376 7 discriminator 1 view .LVU294
 1454 0022 0028     		cmp	r0, #0
 1455 0024 06D1     		bne	.L61
 382:Core/Src/main.c ****     {
 1456              		.loc 1 382 5 is_stmt 1 view .LVU295
 382:Core/Src/main.c ****     {
 1457              		.loc 1 382 28 is_stmt 0 view .LVU296
 1458 0026 1723     		movs	r3, #23
 1459 0028 6B44     		add	r3, r3, sp
 1460 002a 1B78     		ldrb	r3, [r3]
 382:Core/Src/main.c ****     {
 1461              		.loc 1 382 7 view .LVU297
 1462 002c 9B06     		lsls	r3, r3, #26
 1463 002e 03D4     		bmi	.L62
ARM GAS  /var/folders/l4/6w9kflz11csb_6qsyz46nv3c0000gp/T//cck4x9NQ.s 			page 45


 1464              	.L57:
 386:Core/Src/main.c **** 
 1465              		.loc 1 386 1 view .LVU298
 1466 0030 07B0     		add	sp, sp, #28
 1467              		@ sp needed
 1468 0032 00BD     		pop	{pc}
 1469              	.L61:
 378:Core/Src/main.c ****     }
 1470              		.loc 1 378 9 is_stmt 1 view .LVU299
 1471 0034 FFF7FEFF 		bl	Error_Handler
 1472              	.LVL120:
 1473              	.L62:
 384:Core/Src/main.c ****     }
 1474              		.loc 1 384 9 view .LVU300
 1475 0038 034A     		ldr	r2, .L63+4
 1476 003a 0021     		movs	r1, #0
 1477 003c 9620     		movs	r0, #150
 1478 003e FFF7FEFF 		bl	ADV7513_WriteVerifyReg
 1479              	.LVL121:
 386:Core/Src/main.c **** 
 1480              		.loc 1 386 1 is_stmt 0 view .LVU301
 1481 0042 F5E7     		b	.L57
 1482              	.L64:
 1483              		.align	2
 1484              	.L63:
 1485 0044 00000000 		.word	hi2c1
 1486 0048 00000000 		.word	.LC68
 1487              		.cfi_endproc
 1488              	.LFE48:
 1490              		.section	.rodata.ADV7513_PowerInit.str1.4,"aMS",%progbits,1
 1491              		.align	2
 1492              	.LC70:
 1493 0000 504F5745 		.ascii	"POWER_UP\000"
 1493      525F5550 
 1493      00
 1494 0009 000000   		.align	2
 1495              	.LC72:
 1496 000c 504C4C30 		.ascii	"PLL0\000"
 1496      00
 1497 0011 000000   		.align	2
 1498              	.LC74:
 1499 0014 504C4C31 		.ascii	"PLL1\000"
 1499      00
 1500 0019 000000   		.align	2
 1501              	.LC76:
 1502 001c 504C4C32 		.ascii	"PLL2\000"
 1502      00
 1503 0021 000000   		.align	2
 1504              	.LC78:
 1505 0024 504C4C33 		.ascii	"PLL3_HighFreq\000"
 1505      5F486967 
 1505      68467265 
 1505      7100
 1506 0032 0000     		.align	2
 1507              	.LC80:
 1508 0034 504C4C34 		.ascii	"PLL4\000"
 1508      00
ARM GAS  /var/folders/l4/6w9kflz11csb_6qsyz46nv3c0000gp/T//cck4x9NQ.s 			page 46


 1509 0039 000000   		.align	2
 1510              	.LC82:
 1511 003c 504C4C35 		.ascii	"PLL5\000"
 1511      00
 1512 0041 000000   		.align	2
 1513              	.LC84:
 1514 0044 504C4C36 		.ascii	"PLL6\000"
 1514      00
 1515 0049 000000   		.align	2
 1516              	.LC86:
 1517 004c 504C4C37 		.ascii	"PLL7\000"
 1517      00
 1518              		.section	.text.ADV7513_PowerInit,"ax",%progbits
 1519              		.align	1
 1520              		.global	ADV7513_PowerInit
 1521              		.syntax unified
 1522              		.code	16
 1523              		.thumb_func
 1525              	ADV7513_PowerInit:
 1526              	.LFB50:
 448:Core/Src/main.c ****     // 1. Power Up
 1527              		.loc 1 448 1 is_stmt 1 view -0
 1528              		.cfi_startproc
 1529              		@ args = 0, pretend = 0, frame = 8
 1530              		@ frame_needed = 0, uses_anonymous_args = 0
 1531 0000 10B5     		push	{r4, lr}
 1532              		.cfi_def_cfa_offset 8
 1533              		.cfi_offset 4, -8
 1534              		.cfi_offset 14, -4
 1535 0002 86B0     		sub	sp, sp, #24
 1536              		.cfi_def_cfa_offset 32
 450:Core/Src/main.c ****     HAL_Delay(200);
 1537              		.loc 1 450 5 view .LVU303
 1538 0004 254A     		ldr	r2, .L68
 1539 0006 1021     		movs	r1, #16
 1540 0008 4120     		movs	r0, #65
 1541 000a FFF7FEFF 		bl	ADV7513_WriteVerifyReg
 1542              	.LVL122:
 451:Core/Src/main.c **** 
 1543              		.loc 1 451 5 view .LVU304
 1544 000e C820     		movs	r0, #200
 1545 0010 FFF7FEFF 		bl	HAL_Delay
 1546              	.LVL123:
 454:Core/Src/main.c ****     ADV7513_WriteVerifyReg(0x9A, 0xE0, "PLL1");
 1547              		.loc 1 454 5 view .LVU305
 1548 0014 224A     		ldr	r2, .L68+4
 1549 0016 0321     		movs	r1, #3
 1550 0018 9820     		movs	r0, #152
 1551 001a FFF7FEFF 		bl	ADV7513_WriteVerifyReg
 1552              	.LVL124:
 455:Core/Src/main.c ****     ADV7513_WriteVerifyReg(0x9C, 0x30, "PLL2");
 1553              		.loc 1 455 5 view .LVU306
 1554 001e 214A     		ldr	r2, .L68+8
 1555 0020 E021     		movs	r1, #224
 1556 0022 9A20     		movs	r0, #154
 1557 0024 FFF7FEFF 		bl	ADV7513_WriteVerifyReg
 1558              	.LVL125:
ARM GAS  /var/folders/l4/6w9kflz11csb_6qsyz46nv3c0000gp/T//cck4x9NQ.s 			page 47


 456:Core/Src/main.c ****     ADV7513_WriteVerifyReg(0x9D, 0x61, "PLL3_HighFreq");   // ą▓ą░ąČąĮąŠ ą┤ą╗čÅ 40 ą£ąōčå
 1559              		.loc 1 456 5 view .LVU307
 1560 0028 1F4A     		ldr	r2, .L68+12
 1561 002a 3021     		movs	r1, #48
 1562 002c 9C20     		movs	r0, #156
 1563 002e FFF7FEFF 		bl	ADV7513_WriteVerifyReg
 1564              	.LVL126:
 457:Core/Src/main.c ****     ADV7513_WriteVerifyReg(0xA2, 0xA4, "PLL4");
 1565              		.loc 1 457 5 view .LVU308
 1566 0032 1E4A     		ldr	r2, .L68+16
 1567 0034 6121     		movs	r1, #97
 1568 0036 9D20     		movs	r0, #157
 1569 0038 FFF7FEFF 		bl	ADV7513_WriteVerifyReg
 1570              	.LVL127:
 458:Core/Src/main.c ****     ADV7513_WriteVerifyReg(0xA3, 0xA4, "PLL5");
 1571              		.loc 1 458 5 view .LVU309
 1572 003c 1C4A     		ldr	r2, .L68+20
 1573 003e A421     		movs	r1, #164
 1574 0040 A220     		movs	r0, #162
 1575 0042 FFF7FEFF 		bl	ADV7513_WriteVerifyReg
 1576              	.LVL128:
 459:Core/Src/main.c ****     ADV7513_WriteVerifyReg(0xE0, 0xD0, "PLL6");
 1577              		.loc 1 459 5 view .LVU310
 1578 0046 1B4A     		ldr	r2, .L68+24
 1579 0048 A421     		movs	r1, #164
 1580 004a A320     		movs	r0, #163
 1581 004c FFF7FEFF 		bl	ADV7513_WriteVerifyReg
 1582              	.LVL129:
 460:Core/Src/main.c ****     ADV7513_WriteVerifyReg(0xF9, 0x00, "PLL7");
 1583              		.loc 1 460 5 view .LVU311
 1584 0050 194A     		ldr	r2, .L68+28
 1585 0052 D021     		movs	r1, #208
 1586 0054 E020     		movs	r0, #224
 1587 0056 FFF7FEFF 		bl	ADV7513_WriteVerifyReg
 1588              	.LVL130:
 461:Core/Src/main.c **** 
 1589              		.loc 1 461 5 view .LVU312
 1590 005a 184A     		ldr	r2, .L68+32
 1591 005c 0021     		movs	r1, #0
 1592 005e F920     		movs	r0, #249
 1593 0060 FFF7FEFF 		bl	ADV7513_WriteVerifyReg
 1594              	.LVL131:
 468:Core/Src/main.c **** 
 1595              		.loc 1 468 5 view .LVU313
 468:Core/Src/main.c **** 
 1596              		.loc 1 468 13 is_stmt 0 view .LVU314
 1597 0064 1724     		movs	r4, #23
 1598 0066 6C44     		add	r4, r4, sp
 1599 0068 0023     		movs	r3, #0
 1600 006a 2370     		strb	r3, [r4]
 471:Core/Src/main.c ****     if(!((reg>>4)&1)){
 1601              		.loc 1 471 5 is_stmt 1 view .LVU315
 1602 006c 1448     		ldr	r0, .L68+36
 1603 006e 013B     		subs	r3, r3, #1
 1604 0070 0293     		str	r3, [sp, #8]
 1605 0072 0233     		adds	r3, r3, #2
 1606 0074 0193     		str	r3, [sp, #4]
ARM GAS  /var/folders/l4/6w9kflz11csb_6qsyz46nv3c0000gp/T//cck4x9NQ.s 			page 48


 1607 0076 0094     		str	r4, [sp]
 1608 0078 9E22     		movs	r2, #158
 1609 007a 7221     		movs	r1, #114
 1610 007c FFF7FEFF 		bl	HAL_I2C_Mem_Read
 1611              	.LVL132:
 472:Core/Src/main.c ****       Error_Handler();
 1612              		.loc 1 472 5 view .LVU316
 472:Core/Src/main.c ****       Error_Handler();
 1613              		.loc 1 472 18 is_stmt 0 view .LVU317
 1614 0080 2378     		ldrb	r3, [r4]
 472:Core/Src/main.c ****       Error_Handler();
 1615              		.loc 1 472 7 view .LVU318
 1616 0082 DB06     		lsls	r3, r3, #27
 1617 0084 07D5     		bpl	.L67
 475:Core/Src/main.c **** }
 1618              		.loc 1 475 5 is_stmt 1 view .LVU319
 1619 0086 8021     		movs	r1, #128
 1620 0088 9020     		movs	r0, #144
 1621 008a 4900     		lsls	r1, r1, #1
 1622 008c C005     		lsls	r0, r0, #23
 1623 008e FFF7FEFF 		bl	HAL_GPIO_TogglePin
 1624              	.LVL133:
 476:Core/Src/main.c **** 
 1625              		.loc 1 476 1 is_stmt 0 view .LVU320
 1626 0092 06B0     		add	sp, sp, #24
 1627              		@ sp needed
 1628 0094 10BD     		pop	{r4, pc}
 1629              	.L67:
 473:Core/Src/main.c ****     }
 1630              		.loc 1 473 7 is_stmt 1 view .LVU321
 1631 0096 FFF7FEFF 		bl	Error_Handler
 1632              	.LVL134:
 1633              	.L69:
 1634 009a C046     		.align	2
 1635              	.L68:
 1636 009c 00000000 		.word	.LC70
 1637 00a0 0C000000 		.word	.LC72
 1638 00a4 14000000 		.word	.LC74
 1639 00a8 1C000000 		.word	.LC76
 1640 00ac 24000000 		.word	.LC78
 1641 00b0 34000000 		.word	.LC80
 1642 00b4 3C000000 		.word	.LC82
 1643 00b8 44000000 		.word	.LC84
 1644 00bc 4C000000 		.word	.LC86
 1645 00c0 00000000 		.word	hi2c1
 1646              		.cfi_endproc
 1647              	.LFE50:
 1649              		.section	.text.main,"ax",%progbits
 1650              		.align	1
 1651              		.global	main
 1652              		.syntax unified
 1653              		.code	16
 1654              		.thumb_func
 1656              	main:
 1657              	.LFB43:
 141:Core/Src/main.c **** 
 1658              		.loc 1 141 1 view -0
ARM GAS  /var/folders/l4/6w9kflz11csb_6qsyz46nv3c0000gp/T//cck4x9NQ.s 			page 49


 1659              		.cfi_startproc
 1660              		@ Volatile: function does not return.
 1661              		@ args = 0, pretend = 0, frame = 256
 1662              		@ frame_needed = 0, uses_anonymous_args = 0
 1663 0000 00B5     		push	{lr}
 1664              		.cfi_def_cfa_offset 4
 1665              		.cfi_offset 14, -4
 1666 0002 C1B0     		sub	sp, sp, #260
 1667              		.cfi_def_cfa_offset 264
 150:Core/Src/main.c **** 
 1668              		.loc 1 150 3 view .LVU323
 1669 0004 FFF7FEFF 		bl	HAL_Init
 1670              	.LVL135:
 157:Core/Src/main.c **** 
 1671              		.loc 1 157 3 view .LVU324
 1672 0008 FFF7FEFF 		bl	SystemClock_Config
 1673              	.LVL136:
 160:Core/Src/main.c ****   /* USER CODE END SysInit */
 1674              		.loc 1 160 3 view .LVU325
 1675 000c C820     		movs	r0, #200
 1676 000e FFF7FEFF 		bl	HAL_Delay
 1677              	.LVL137:
 164:Core/Src/main.c ****   MX_I2C1_Init();
 1678              		.loc 1 164 3 view .LVU326
 1679 0012 FFF7FEFF 		bl	MX_GPIO_Init
 1680              	.LVL138:
 165:Core/Src/main.c ****   MX_USART1_UART_Init();
 1681              		.loc 1 165 3 view .LVU327
 1682 0016 FFF7FEFF 		bl	MX_I2C1_Init
 1683              	.LVL139:
 166:Core/Src/main.c ****   /* USER CODE BEGIN 2 */
 1684              		.loc 1 166 3 view .LVU328
 1685 001a FFF7FEFF 		bl	MX_USART1_UART_Init
 1686              	.LVL140:
 168:Core/Src/main.c ****   ADV7513_PowerInit();
 1687              		.loc 1 168 3 view .LVU329
 169:Core/Src/main.c ****   ADV7513_HDMI_Init();
 1688              		.loc 1 169 3 view .LVU330
 1689 001e FFF7FEFF 		bl	ADV7513_PowerInit
 1690              	.LVL141:
 170:Core/Src/main.c **** 
 1691              		.loc 1 170 3 view .LVU331
 1692 0022 FFF7FEFF 		bl	ADV7513_HDMI_Init
 1693              	.LVL142:
 186:Core/Src/main.c **** 
 1694              		.loc 1 186 3 view .LVU332
 1695 0026 0123     		movs	r3, #1
 1696 0028 0448     		ldr	r0, .L72
 1697 002a 5B42     		rsbs	r3, r3, #0
 1698 002c 6A46     		mov	r2, sp
 1699 002e 0021     		movs	r1, #0
 1700 0030 FFF7FEFF 		bl	ADV7513_ReadEDIDSegment
 1701              	.LVL143:
 189:Core/Src/main.c ****   /* USER CODE END 2 */
 1702              		.loc 1 189 3 view .LVU333
 1703 0034 FFF7FEFF 		bl	ADV7513_Full_Diagnostics
 1704              	.LVL144:
ARM GAS  /var/folders/l4/6w9kflz11csb_6qsyz46nv3c0000gp/T//cck4x9NQ.s 			page 50


 1705              	.L71:
 193:Core/Src/main.c ****   {
 1706              		.loc 1 193 5 view .LVU334
 198:Core/Src/main.c **** 
 1707              		.loc 1 198 7 discriminator 1 view .LVU335
 1708              		.syntax divided
 1709              	@ 198 "Core/Src/main.c" 1
 1710 0038 30BF     		wfi
 1711              	@ 0 "" 2
 193:Core/Src/main.c ****   {
 1712              		.loc 1 193 11 view .LVU336
 1713              		.thumb
 1714              		.syntax unified
 1715 003a FDE7     		b	.L71
 1716              	.L73:
 1717              		.align	2
 1718              	.L72:
 1719 003c 00000000 		.word	hi2c1
 1720              		.cfi_endproc
 1721              	.LFE43:
 1723              		.section	.rodata.str1.4,"aMS",%progbits,1
 1724              		.align	2
 1725              	.LC0:
 1726 0000 496E2052 		.ascii	"In Reset (No HPD)\000"
 1726      65736574 
 1726      20284E6F 
 1726      20485044 
 1726      2900
 1727 0012 0000     		.align	2
 1728              	.LC1:
 1729 0014 52656164 		.ascii	"Reading EDID\000"
 1729      696E6720 
 1729      45444944 
 1729      00
 1730 0021 000000   		.align	2
 1731              	.LC2:
 1732 0024 49444C45 		.ascii	"IDLE (EDID Ready)\000"
 1732      20284544 
 1732      49442052 
 1732      65616479 
 1732      2900
 1733 0036 0000     		.align	2
 1734              	.LC3:
 1735 0038 496E6974 		.ascii	"Initializing HDCP\000"
 1735      69616C69 
 1735      7A696E67 
 1735      20484443 
 1735      5000
 1736 004a 0000     		.align	2
 1737              	.LC4:
 1738 004c 48444350 		.ascii	"HDCP Enabled\000"
 1738      20456E61 
 1738      626C6564 
 1738      00
 1739 0059 000000   		.align	2
 1740              	.LC5:
 1741 005c 496E6974 		.ascii	"Initializing HDCP Repeater\000"
ARM GAS  /var/folders/l4/6w9kflz11csb_6qsyz46nv3c0000gp/T//cck4x9NQ.s 			page 51


 1741      69616C69 
 1741      7A696E67 
 1741      20484443 
 1741      50205265 
 1742              		.global	huart1
 1743              		.section	.bss.huart1,"aw",%nobits
 1744              		.align	2
 1747              	huart1:
 1748 0000 00000000 		.space	136
 1748      00000000 
 1748      00000000 
 1748      00000000 
 1748      00000000 
 1749              		.global	hi2c1
 1750              		.section	.bss.hi2c1,"aw",%nobits
 1751              		.align	2
 1754              	hi2c1:
 1755 0000 00000000 		.space	84
 1755      00000000 
 1755      00000000 
 1755      00000000 
 1755      00000000 
 1756              		.section	.rodata
 1757              		.align	2
 1758              		.set	.LANCHOR0,. + 0
 1759              	.LC23:
 1760 0000 00000000 		.word	.LC0
 1761 0004 14000000 		.word	.LC1
 1762 0008 24000000 		.word	.LC2
 1763 000c 38000000 		.word	.LC3
 1764 0010 4C000000 		.word	.LC4
 1765 0014 5C000000 		.word	.LC5
 1766              		.text
 1767              	.Letext0:
 1768              		.file 3 "/Users/rasil/Library/Application Support/Code/User/globalStorage/bmd.stm32-for-vscode/@xp
 1769              		.file 4 "/Users/rasil/Library/Application Support/Code/User/globalStorage/bmd.stm32-for-vscode/@xp
 1770              		.file 5 "Drivers/CMSIS/Device/ST/STM32F0xx/Include/stm32f030x6.h"
 1771              		.file 6 "/Users/rasil/Library/Application Support/Code/User/globalStorage/bmd.stm32-for-vscode/@xp
 1772              		.file 7 "Drivers/STM32F0xx_HAL_Driver/Inc/stm32f0xx_hal_def.h"
 1773              		.file 8 "Drivers/STM32F0xx_HAL_Driver/Inc/stm32f0xx_hal_rcc.h"
 1774              		.file 9 "Drivers/STM32F0xx_HAL_Driver/Inc/stm32f0xx_hal_rcc_ex.h"
 1775              		.file 10 "Drivers/STM32F0xx_HAL_Driver/Inc/stm32f0xx_hal_gpio.h"
 1776              		.file 11 "Drivers/STM32F0xx_HAL_Driver/Inc/stm32f0xx_hal_dma.h"
 1777              		.file 12 "Drivers/STM32F0xx_HAL_Driver/Inc/stm32f0xx_hal_i2c.h"
 1778              		.file 13 "Drivers/STM32F0xx_HAL_Driver/Inc/stm32f0xx_hal_uart.h"
 1779              		.file 14 "/Users/rasil/Library/Application Support/Code/User/globalStorage/bmd.stm32-for-vscode/@x
 1780              		.file 15 "/Users/rasil/Library/Application Support/Code/User/globalStorage/bmd.stm32-for-vscode/@x
 1781              		.file 16 "Drivers/STM32F0xx_HAL_Driver/Inc/stm32f0xx_hal_i2c_ex.h"
 1782              		.file 17 "Drivers/STM32F0xx_HAL_Driver/Inc/stm32f0xx_hal.h"
 1783              		.file 18 "<built-in>"
ARM GAS  /var/folders/l4/6w9kflz11csb_6qsyz46nv3c0000gp/T//cck4x9NQ.s 			page 52

